
kernel:     file format elf64-littleriscv


Disassembly of section .text:

0000000080000000 <_entry>:
    80000000:	0000d117          	auipc	sp,0xd
    80000004:	e1813103          	ld	sp,-488(sp) # 8000ce18 <_GLOBAL_OFFSET_TABLE_+0x38>
    80000008:	00001537          	lui	a0,0x1
    8000000c:	f14025f3          	csrr	a1,mhartid
    80000010:	00158593          	addi	a1,a1,1
    80000014:	02b50533          	mul	a0,a0,a1
    80000018:	00a10133          	add	sp,sp,a0
    8000001c:	411070ef          	jal	ra,80007c2c <start>

0000000080000020 <spin>:
    80000020:	0000006f          	j	80000020 <spin>
	...

0000000080001000 <copy_and_swap>:
# a1 holds expected value
# a2 holds desired value
# a0 holds return value, 0 if successful, !0 otherwise
.global copy_and_swap
copy_and_swap:
    lr.w t0, (a0)          # Load original value.
    80001000:	100522af          	lr.w	t0,(a0)
    bne t0, a1, fail       # Doesn’t match, so fail.
    80001004:	00b29a63          	bne	t0,a1,80001018 <fail>
    sc.w t0, a2, (a0)      # Try to update.
    80001008:	18c522af          	sc.w	t0,a2,(a0)
    bnez t0, copy_and_swap # Retry if store-conditional failed.
    8000100c:	fe029ae3          	bnez	t0,80001000 <copy_and_swap>
    li a0, 0               # Set return to success.
    80001010:	00000513          	li	a0,0
    jr ra                  # Return.
    80001014:	00008067          	ret

0000000080001018 <fail>:
    fail:
    li a0, 1               # Set return to failure.
    80001018:	00100513          	li	a0,1
    8000101c:	00008067          	ret

0000000080001020 <_ZN8Handlers11trapHandlerEv>:
.global _ZN8Handlers11trapHandlerEv
.type _ZN8Handlers11trapHandlerEv, @function

_ZN8Handlers11trapHandlerEv:

    PUSH_REGS
    80001020:	f0010113          	addi	sp,sp,-256
    80001024:	00013023          	sd	zero,0(sp)
    80001028:	00113423          	sd	ra,8(sp)
    8000102c:	00213823          	sd	sp,16(sp)
    80001030:	00313c23          	sd	gp,24(sp)
    80001034:	02413023          	sd	tp,32(sp)
    80001038:	02513423          	sd	t0,40(sp)
    8000103c:	02613823          	sd	t1,48(sp)
    80001040:	02713c23          	sd	t2,56(sp)
    80001044:	04813023          	sd	s0,64(sp)
    80001048:	04913423          	sd	s1,72(sp)
    8000104c:	04a13823          	sd	a0,80(sp)
    80001050:	04b13c23          	sd	a1,88(sp)
    80001054:	06c13023          	sd	a2,96(sp)
    80001058:	06d13423          	sd	a3,104(sp)
    8000105c:	06e13823          	sd	a4,112(sp)
    80001060:	06f13c23          	sd	a5,120(sp)
    80001064:	09013023          	sd	a6,128(sp)
    80001068:	09113423          	sd	a7,136(sp)
    8000106c:	09213823          	sd	s2,144(sp)
    80001070:	09313c23          	sd	s3,152(sp)
    80001074:	0b413023          	sd	s4,160(sp)
    80001078:	0b513423          	sd	s5,168(sp)
    8000107c:	0b613823          	sd	s6,176(sp)
    80001080:	0b713c23          	sd	s7,184(sp)
    80001084:	0d813023          	sd	s8,192(sp)
    80001088:	0d913423          	sd	s9,200(sp)
    8000108c:	0da13823          	sd	s10,208(sp)
    80001090:	0db13c23          	sd	s11,216(sp)
    80001094:	0fc13023          	sd	t3,224(sp)
    80001098:	0fd13423          	sd	t4,232(sp)
    8000109c:	0fe13823          	sd	t5,240(sp)
    800010a0:	0ff13c23          	sd	t6,248(sp)

    call _ZN8Handlers11handleTimerEv # handleTimer
    800010a4:	079040ef          	jal	ra,8000591c <_ZN8Handlers11handleTimerEv>
    andi a0, a0, 255
    800010a8:	0ff57513          	andi	a0,a0,255
    bnez a0, pop_all # if a0 == 1 (a!=0), it's timer interrupt so branch and restore context
    800010ac:	0c051063          	bnez	a0,8000116c <pop_all>

    call _ZN8Handlers13handleConsoleEv # handleConsole
    800010b0:	149040ef          	jal	ra,800059f8 <_ZN8Handlers13handleConsoleEv>
    andi a0, a0, 255
    800010b4:	0ff57513          	andi	a0,a0,255
    bnez a0, pop_all # if a0 == 1 (a!=0), it's console interrupt so branch and restore context
    800010b8:	0a051a63          	bnez	a0,8000116c <pop_all>


    # get arguments a0..a4
    ld x10, 10*8(sp)
    800010bc:	05013503          	ld	a0,80(sp)
    ld x11, 11*8(sp)
    800010c0:	05813583          	ld	a1,88(sp)
    ld x12, 12*8(sp)
    800010c4:	06013603          	ld	a2,96(sp)
    ld x13, 13*8(sp)
    800010c8:	06813683          	ld	a3,104(sp)
    ld x14, 14*8(sp)
    800010cc:	07013703          	ld	a4,112(sp)

    xori x10, x10, 0x13 # sysID::THREAD_DISPATCH
    800010d0:	01354513          	xori	a0,a0,19
    beqz x10, call_dispatch # if it is sysID::THREAD_DISPATCH in a0 is 0 so jump
    800010d4:	08050863          	beqz	a0,80001164 <call_dispatch>

    ld x10, 10*8(sp) # restore a0 again
    800010d8:	05013503          	ld	a0,80(sp)
    call _ZN8Handlers14handleSyscallsEv # handleSyscalls
    800010dc:	405030ef          	jal	ra,80004ce0 <_ZN8Handlers14handleSyscallsEv>

    POP_REGS_notA0 # in a0 is return value so don't pop a0
    800010e0:	00013003          	ld	zero,0(sp)
    800010e4:	00813083          	ld	ra,8(sp)
    800010e8:	01013103          	ld	sp,16(sp)
    800010ec:	01813183          	ld	gp,24(sp)
    800010f0:	02013203          	ld	tp,32(sp)
    800010f4:	02813283          	ld	t0,40(sp)
    800010f8:	03013303          	ld	t1,48(sp)
    800010fc:	03813383          	ld	t2,56(sp)
    80001100:	04013403          	ld	s0,64(sp)
    80001104:	04813483          	ld	s1,72(sp)
    80001108:	05813583          	ld	a1,88(sp)
    8000110c:	06013603          	ld	a2,96(sp)
    80001110:	06813683          	ld	a3,104(sp)
    80001114:	07013703          	ld	a4,112(sp)
    80001118:	07813783          	ld	a5,120(sp)
    8000111c:	08013803          	ld	a6,128(sp)
    80001120:	08813883          	ld	a7,136(sp)
    80001124:	09013903          	ld	s2,144(sp)
    80001128:	09813983          	ld	s3,152(sp)
    8000112c:	0a013a03          	ld	s4,160(sp)
    80001130:	0a813a83          	ld	s5,168(sp)
    80001134:	0b013b03          	ld	s6,176(sp)
    80001138:	0b813b83          	ld	s7,184(sp)
    8000113c:	0c013c03          	ld	s8,192(sp)
    80001140:	0c813c83          	ld	s9,200(sp)
    80001144:	0d013d03          	ld	s10,208(sp)
    80001148:	0d813d83          	ld	s11,216(sp)
    8000114c:	0e013e03          	ld	t3,224(sp)
    80001150:	0e813e83          	ld	t4,232(sp)
    80001154:	0f013f03          	ld	t5,240(sp)
    80001158:	0f813f83          	ld	t6,248(sp)
    8000115c:	10010113          	addi	sp,sp,256

    sret
    80001160:	10200073          	sret

0000000080001164 <call_dispatch>:

call_dispatch: ld x10, 10*8(sp) # restore a0 again
    80001164:	05013503          	ld	a0,80(sp)
call _ZN8Handlers14handleSyscallsEv # handleSyscalls
    80001168:	379030ef          	jal	ra,80004ce0 <_ZN8Handlers14handleSyscallsEv>

000000008000116c <pop_all>:
pop_all:POP_REGS # restore ALL registers
    8000116c:	00013003          	ld	zero,0(sp)
    80001170:	00813083          	ld	ra,8(sp)
    80001174:	01013103          	ld	sp,16(sp)
    80001178:	01813183          	ld	gp,24(sp)
    8000117c:	02013203          	ld	tp,32(sp)
    80001180:	02813283          	ld	t0,40(sp)
    80001184:	03013303          	ld	t1,48(sp)
    80001188:	03813383          	ld	t2,56(sp)
    8000118c:	04013403          	ld	s0,64(sp)
    80001190:	04813483          	ld	s1,72(sp)
    80001194:	05013503          	ld	a0,80(sp)
    80001198:	05813583          	ld	a1,88(sp)
    8000119c:	06013603          	ld	a2,96(sp)
    800011a0:	06813683          	ld	a3,104(sp)
    800011a4:	07013703          	ld	a4,112(sp)
    800011a8:	07813783          	ld	a5,120(sp)
    800011ac:	08013803          	ld	a6,128(sp)
    800011b0:	08813883          	ld	a7,136(sp)
    800011b4:	09013903          	ld	s2,144(sp)
    800011b8:	09813983          	ld	s3,152(sp)
    800011bc:	0a013a03          	ld	s4,160(sp)
    800011c0:	0a813a83          	ld	s5,168(sp)
    800011c4:	0b013b03          	ld	s6,176(sp)
    800011c8:	0b813b83          	ld	s7,184(sp)
    800011cc:	0c013c03          	ld	s8,192(sp)
    800011d0:	0c813c83          	ld	s9,200(sp)
    800011d4:	0d013d03          	ld	s10,208(sp)
    800011d8:	0d813d83          	ld	s11,216(sp)
    800011dc:	0e013e03          	ld	t3,224(sp)
    800011e0:	0e813e83          	ld	t4,232(sp)
    800011e4:	0f013f03          	ld	t5,240(sp)
    800011e8:	0f813f83          	ld	t6,248(sp)
    800011ec:	10010113          	addi	sp,sp,256
    sret # pc <= sepc
    800011f0:	10200073          	sret

00000000800011f4 <_ZN7_thread13contextSwitchEPNS_7ContextES1_b>:
.global _ZN7_thread13contextSwitchEPNS_7ContextES1_b
.type _ZN7_thread13contextSwitchEPNS_7ContextES1_b, @function
_ZN7_thread13contextSwitchEPNS_7ContextES1_b:
    # a0 is oldContext, a1 is newContext, a2 is bool true if should save old context

    andi a2, a2, 255 # if old thread deallocated branch and load only new context
    800011f4:	0ff67613          	andi	a2,a2,255
    bnez a2, load_new_context   #_ZN7_thread13contextSwitchEPNS_7ContextES1_b
    800011f8:	00061663          	bnez	a2,80001204 <load_new_context>

    sd ra, 0*8(a0)
    800011fc:	00153023          	sd	ra,0(a0) # 1000 <_entry-0x7ffff000>
    sd sp, 1*8(a0)
    80001200:	00253423          	sd	sp,8(a0)

0000000080001204 <load_new_context>:

load_new_context:
    ld ra, 0*8(a1)
    80001204:	0005b083          	ld	ra,0(a1)
    ld sp, 1*8(a1)
    80001208:	0085b103          	ld	sp,8(a1)

    8000120c:	00008067          	ret

0000000080001210 <_ZL16producerKeyboardPv>:
    sem_t wait;
};

static volatile int threadEnd = 0;

static void producerKeyboard(void *arg) {
    80001210:	fe010113          	addi	sp,sp,-32
    80001214:	00113c23          	sd	ra,24(sp)
    80001218:	00813823          	sd	s0,16(sp)
    8000121c:	00913423          	sd	s1,8(sp)
    80001220:	01213023          	sd	s2,0(sp)
    80001224:	02010413          	addi	s0,sp,32
    80001228:	00050493          	mv	s1,a0
    struct thread_data *data = (struct thread_data *) arg;

    int key;
    int i = 0;
    8000122c:	00000913          	li	s2,0
    80001230:	00c0006f          	j	8000123c <_ZL16producerKeyboardPv+0x2c>
    while ((key = getc()) != 0x1b) {
        data->buffer->put(key);
        i++;

        if (i % (10 * data->id) == 0) {
            thread_dispatch();
    80001234:	00004097          	auipc	ra,0x4
    80001238:	818080e7          	jalr	-2024(ra) # 80004a4c <thread_dispatch>
    while ((key = getc()) != 0x1b) {
    8000123c:	00004097          	auipc	ra,0x4
    80001240:	a28080e7          	jalr	-1496(ra) # 80004c64 <getc>
    80001244:	0005059b          	sext.w	a1,a0
    80001248:	01b00793          	li	a5,27
    8000124c:	02f58a63          	beq	a1,a5,80001280 <_ZL16producerKeyboardPv+0x70>
        data->buffer->put(key);
    80001250:	0084b503          	ld	a0,8(s1)
    80001254:	00003097          	auipc	ra,0x3
    80001258:	400080e7          	jalr	1024(ra) # 80004654 <_ZN6Buffer3putEi>
        i++;
    8000125c:	0019071b          	addiw	a4,s2,1
    80001260:	0007091b          	sext.w	s2,a4
        if (i % (10 * data->id) == 0) {
    80001264:	0004a683          	lw	a3,0(s1)
    80001268:	0026979b          	slliw	a5,a3,0x2
    8000126c:	00d787bb          	addw	a5,a5,a3
    80001270:	0017979b          	slliw	a5,a5,0x1
    80001274:	02f767bb          	remw	a5,a4,a5
    80001278:	fc0792e3          	bnez	a5,8000123c <_ZL16producerKeyboardPv+0x2c>
    8000127c:	fb9ff06f          	j	80001234 <_ZL16producerKeyboardPv+0x24>
        }
    }

    threadEnd = 1;
    80001280:	00100793          	li	a5,1
    80001284:	0000c717          	auipc	a4,0xc
    80001288:	c2f72623          	sw	a5,-980(a4) # 8000ceb0 <_ZL9threadEnd>
    data->buffer->put('!');
    8000128c:	02100593          	li	a1,33
    80001290:	0084b503          	ld	a0,8(s1)
    80001294:	00003097          	auipc	ra,0x3
    80001298:	3c0080e7          	jalr	960(ra) # 80004654 <_ZN6Buffer3putEi>

    sem_signal(data->wait);
    8000129c:	0104b503          	ld	a0,16(s1)
    800012a0:	00004097          	auipc	ra,0x4
    800012a4:	8ac080e7          	jalr	-1876(ra) # 80004b4c <sem_signal>
}
    800012a8:	01813083          	ld	ra,24(sp)
    800012ac:	01013403          	ld	s0,16(sp)
    800012b0:	00813483          	ld	s1,8(sp)
    800012b4:	00013903          	ld	s2,0(sp)
    800012b8:	02010113          	addi	sp,sp,32
    800012bc:	00008067          	ret

00000000800012c0 <_ZL8producerPv>:

static void producer(void *arg) {
    800012c0:	fe010113          	addi	sp,sp,-32
    800012c4:	00113c23          	sd	ra,24(sp)
    800012c8:	00813823          	sd	s0,16(sp)
    800012cc:	00913423          	sd	s1,8(sp)
    800012d0:	01213023          	sd	s2,0(sp)
    800012d4:	02010413          	addi	s0,sp,32
    800012d8:	00050493          	mv	s1,a0
    struct thread_data *data = (struct thread_data *) arg;

    int i = 0;
    800012dc:	00000913          	li	s2,0
    800012e0:	00c0006f          	j	800012ec <_ZL8producerPv+0x2c>
    while (!threadEnd) {
        data->buffer->put(data->id + '0');
        i++;

        if (i % (10 * data->id) == 0) {
            thread_dispatch();
    800012e4:	00003097          	auipc	ra,0x3
    800012e8:	768080e7          	jalr	1896(ra) # 80004a4c <thread_dispatch>
    while (!threadEnd) {
    800012ec:	0000c797          	auipc	a5,0xc
    800012f0:	bc47a783          	lw	a5,-1084(a5) # 8000ceb0 <_ZL9threadEnd>
    800012f4:	02079e63          	bnez	a5,80001330 <_ZL8producerPv+0x70>
        data->buffer->put(data->id + '0');
    800012f8:	0004a583          	lw	a1,0(s1)
    800012fc:	0305859b          	addiw	a1,a1,48
    80001300:	0084b503          	ld	a0,8(s1)
    80001304:	00003097          	auipc	ra,0x3
    80001308:	350080e7          	jalr	848(ra) # 80004654 <_ZN6Buffer3putEi>
        i++;
    8000130c:	0019071b          	addiw	a4,s2,1
    80001310:	0007091b          	sext.w	s2,a4
        if (i % (10 * data->id) == 0) {
    80001314:	0004a683          	lw	a3,0(s1)
    80001318:	0026979b          	slliw	a5,a3,0x2
    8000131c:	00d787bb          	addw	a5,a5,a3
    80001320:	0017979b          	slliw	a5,a5,0x1
    80001324:	02f767bb          	remw	a5,a4,a5
    80001328:	fc0792e3          	bnez	a5,800012ec <_ZL8producerPv+0x2c>
    8000132c:	fb9ff06f          	j	800012e4 <_ZL8producerPv+0x24>
        }
    }

    sem_signal(data->wait);
    80001330:	0104b503          	ld	a0,16(s1)
    80001334:	00004097          	auipc	ra,0x4
    80001338:	818080e7          	jalr	-2024(ra) # 80004b4c <sem_signal>
}
    8000133c:	01813083          	ld	ra,24(sp)
    80001340:	01013403          	ld	s0,16(sp)
    80001344:	00813483          	ld	s1,8(sp)
    80001348:	00013903          	ld	s2,0(sp)
    8000134c:	02010113          	addi	sp,sp,32
    80001350:	00008067          	ret

0000000080001354 <_ZL8consumerPv>:

static void consumer(void *arg) {
    80001354:	fd010113          	addi	sp,sp,-48
    80001358:	02113423          	sd	ra,40(sp)
    8000135c:	02813023          	sd	s0,32(sp)
    80001360:	00913c23          	sd	s1,24(sp)
    80001364:	01213823          	sd	s2,16(sp)
    80001368:	01313423          	sd	s3,8(sp)
    8000136c:	03010413          	addi	s0,sp,48
    80001370:	00050913          	mv	s2,a0
    struct thread_data *data = (struct thread_data *) arg;

    int i = 0;
    80001374:	00000993          	li	s3,0
    80001378:	01c0006f          	j	80001394 <_ZL8consumerPv+0x40>
        i++;

        putc(key);

        if (i % (5 * data->id) == 0) {
            thread_dispatch();
    8000137c:	00003097          	auipc	ra,0x3
    80001380:	6d0080e7          	jalr	1744(ra) # 80004a4c <thread_dispatch>
    80001384:	0500006f          	j	800013d4 <_ZL8consumerPv+0x80>
        }

        if (i % 80 == 0) {
            putc('\n');
    80001388:	00a00513          	li	a0,10
    8000138c:	00004097          	auipc	ra,0x4
    80001390:	918080e7          	jalr	-1768(ra) # 80004ca4 <putc>
    while (!threadEnd) {
    80001394:	0000c797          	auipc	a5,0xc
    80001398:	b1c7a783          	lw	a5,-1252(a5) # 8000ceb0 <_ZL9threadEnd>
    8000139c:	06079063          	bnez	a5,800013fc <_ZL8consumerPv+0xa8>
        int key = data->buffer->get();
    800013a0:	00893503          	ld	a0,8(s2)
    800013a4:	00003097          	auipc	ra,0x3
    800013a8:	340080e7          	jalr	832(ra) # 800046e4 <_ZN6Buffer3getEv>
        i++;
    800013ac:	0019849b          	addiw	s1,s3,1
    800013b0:	0004899b          	sext.w	s3,s1
        putc(key);
    800013b4:	0ff57513          	andi	a0,a0,255
    800013b8:	00004097          	auipc	ra,0x4
    800013bc:	8ec080e7          	jalr	-1812(ra) # 80004ca4 <putc>
        if (i % (5 * data->id) == 0) {
    800013c0:	00092703          	lw	a4,0(s2)
    800013c4:	0027179b          	slliw	a5,a4,0x2
    800013c8:	00e787bb          	addw	a5,a5,a4
    800013cc:	02f4e7bb          	remw	a5,s1,a5
    800013d0:	fa0786e3          	beqz	a5,8000137c <_ZL8consumerPv+0x28>
        if (i % 80 == 0) {
    800013d4:	05000793          	li	a5,80
    800013d8:	02f4e4bb          	remw	s1,s1,a5
    800013dc:	fa049ce3          	bnez	s1,80001394 <_ZL8consumerPv+0x40>
    800013e0:	fa9ff06f          	j	80001388 <_ZL8consumerPv+0x34>
        }
    }

    while (data->buffer->getCnt() > 0) {
        int key = data->buffer->get();
    800013e4:	00893503          	ld	a0,8(s2)
    800013e8:	00003097          	auipc	ra,0x3
    800013ec:	2fc080e7          	jalr	764(ra) # 800046e4 <_ZN6Buffer3getEv>
        putc(key);
    800013f0:	0ff57513          	andi	a0,a0,255
    800013f4:	00004097          	auipc	ra,0x4
    800013f8:	8b0080e7          	jalr	-1872(ra) # 80004ca4 <putc>
    while (data->buffer->getCnt() > 0) {
    800013fc:	00893503          	ld	a0,8(s2)
    80001400:	00003097          	auipc	ra,0x3
    80001404:	370080e7          	jalr	880(ra) # 80004770 <_ZN6Buffer6getCntEv>
    80001408:	fca04ee3          	bgtz	a0,800013e4 <_ZL8consumerPv+0x90>
    }

    sem_signal(data->wait);
    8000140c:	01093503          	ld	a0,16(s2)
    80001410:	00003097          	auipc	ra,0x3
    80001414:	73c080e7          	jalr	1852(ra) # 80004b4c <sem_signal>
}
    80001418:	02813083          	ld	ra,40(sp)
    8000141c:	02013403          	ld	s0,32(sp)
    80001420:	01813483          	ld	s1,24(sp)
    80001424:	01013903          	ld	s2,16(sp)
    80001428:	00813983          	ld	s3,8(sp)
    8000142c:	03010113          	addi	sp,sp,48
    80001430:	00008067          	ret

0000000080001434 <_Z22producerConsumer_C_APIv>:

void producerConsumer_C_API() {
    80001434:	f9010113          	addi	sp,sp,-112
    80001438:	06113423          	sd	ra,104(sp)
    8000143c:	06813023          	sd	s0,96(sp)
    80001440:	04913c23          	sd	s1,88(sp)
    80001444:	05213823          	sd	s2,80(sp)
    80001448:	05313423          	sd	s3,72(sp)
    8000144c:	05413023          	sd	s4,64(sp)
    80001450:	03513c23          	sd	s5,56(sp)
    80001454:	03613823          	sd	s6,48(sp)
    80001458:	07010413          	addi	s0,sp,112
        sem_wait(waitForAll);
    }

    sem_close(waitForAll);

    delete buffer;
    8000145c:	00010b13          	mv	s6,sp
    printString("Unesite broj proizvodjaca?\n");
    80001460:	00009517          	auipc	a0,0x9
    80001464:	bc050513          	addi	a0,a0,-1088 # 8000a020 <CONSOLE_STATUS+0x10>
    80001468:	00002097          	auipc	ra,0x2
    8000146c:	220080e7          	jalr	544(ra) # 80003688 <_Z11printStringPKc>
    getString(input, 30);
    80001470:	01e00593          	li	a1,30
    80001474:	fa040493          	addi	s1,s0,-96
    80001478:	00048513          	mv	a0,s1
    8000147c:	00002097          	auipc	ra,0x2
    80001480:	294080e7          	jalr	660(ra) # 80003710 <_Z9getStringPci>
    threadNum = stringToInt(input);
    80001484:	00048513          	mv	a0,s1
    80001488:	00002097          	auipc	ra,0x2
    8000148c:	360080e7          	jalr	864(ra) # 800037e8 <_Z11stringToIntPKc>
    80001490:	00050913          	mv	s2,a0
    printString("Unesite velicinu bafera?\n");
    80001494:	00009517          	auipc	a0,0x9
    80001498:	bac50513          	addi	a0,a0,-1108 # 8000a040 <CONSOLE_STATUS+0x30>
    8000149c:	00002097          	auipc	ra,0x2
    800014a0:	1ec080e7          	jalr	492(ra) # 80003688 <_Z11printStringPKc>
    getString(input, 30);
    800014a4:	01e00593          	li	a1,30
    800014a8:	00048513          	mv	a0,s1
    800014ac:	00002097          	auipc	ra,0x2
    800014b0:	264080e7          	jalr	612(ra) # 80003710 <_Z9getStringPci>
    n = stringToInt(input);
    800014b4:	00048513          	mv	a0,s1
    800014b8:	00002097          	auipc	ra,0x2
    800014bc:	330080e7          	jalr	816(ra) # 800037e8 <_Z11stringToIntPKc>
    800014c0:	00050493          	mv	s1,a0
    printString("Broj proizvodjaca "); printInt(threadNum);
    800014c4:	00009517          	auipc	a0,0x9
    800014c8:	b9c50513          	addi	a0,a0,-1124 # 8000a060 <CONSOLE_STATUS+0x50>
    800014cc:	00002097          	auipc	ra,0x2
    800014d0:	1bc080e7          	jalr	444(ra) # 80003688 <_Z11printStringPKc>
    800014d4:	00000613          	li	a2,0
    800014d8:	00a00593          	li	a1,10
    800014dc:	00090513          	mv	a0,s2
    800014e0:	00002097          	auipc	ra,0x2
    800014e4:	358080e7          	jalr	856(ra) # 80003838 <_Z8printIntiii>
    printString(" i velicina bafera "); printInt(n);
    800014e8:	00009517          	auipc	a0,0x9
    800014ec:	b9050513          	addi	a0,a0,-1136 # 8000a078 <CONSOLE_STATUS+0x68>
    800014f0:	00002097          	auipc	ra,0x2
    800014f4:	198080e7          	jalr	408(ra) # 80003688 <_Z11printStringPKc>
    800014f8:	00000613          	li	a2,0
    800014fc:	00a00593          	li	a1,10
    80001500:	00048513          	mv	a0,s1
    80001504:	00002097          	auipc	ra,0x2
    80001508:	334080e7          	jalr	820(ra) # 80003838 <_Z8printIntiii>
    printString(".\n");
    8000150c:	00009517          	auipc	a0,0x9
    80001510:	1a450513          	addi	a0,a0,420 # 8000a6b0 <CONSOLE_STATUS+0x6a0>
    80001514:	00002097          	auipc	ra,0x2
    80001518:	174080e7          	jalr	372(ra) # 80003688 <_Z11printStringPKc>
    if(threadNum > n) {
    8000151c:	0324c463          	blt	s1,s2,80001544 <_Z22producerConsumer_C_APIv+0x110>
    } else if (threadNum < 1) {
    80001520:	03205c63          	blez	s2,80001558 <_Z22producerConsumer_C_APIv+0x124>
    Buffer *buffer = new Buffer(n);
    80001524:	03800513          	li	a0,56
    80001528:	00005097          	auipc	ra,0x5
    8000152c:	430080e7          	jalr	1072(ra) # 80006958 <_Znwm>
    80001530:	00050a13          	mv	s4,a0
    80001534:	00048593          	mv	a1,s1
    80001538:	00003097          	auipc	ra,0x3
    8000153c:	080080e7          	jalr	128(ra) # 800045b8 <_ZN6BufferC1Ei>
    80001540:	0300006f          	j	80001570 <_Z22producerConsumer_C_APIv+0x13c>
        printString("Broj proizvodjaca ne sme biti manji od velicine bafera!\n");
    80001544:	00009517          	auipc	a0,0x9
    80001548:	b4c50513          	addi	a0,a0,-1204 # 8000a090 <CONSOLE_STATUS+0x80>
    8000154c:	00002097          	auipc	ra,0x2
    80001550:	13c080e7          	jalr	316(ra) # 80003688 <_Z11printStringPKc>
        return;
    80001554:	0140006f          	j	80001568 <_Z22producerConsumer_C_APIv+0x134>
        printString("Broj proizvodjaca mora biti veci od nula!\n");
    80001558:	00009517          	auipc	a0,0x9
    8000155c:	b7850513          	addi	a0,a0,-1160 # 8000a0d0 <CONSOLE_STATUS+0xc0>
    80001560:	00002097          	auipc	ra,0x2
    80001564:	128080e7          	jalr	296(ra) # 80003688 <_Z11printStringPKc>
        return;
    80001568:	000b0113          	mv	sp,s6
    8000156c:	1500006f          	j	800016bc <_Z22producerConsumer_C_APIv+0x288>
    sem_open(&waitForAll, 0);
    80001570:	00000593          	li	a1,0
    80001574:	0000c517          	auipc	a0,0xc
    80001578:	94450513          	addi	a0,a0,-1724 # 8000ceb8 <_ZL10waitForAll>
    8000157c:	00003097          	auipc	ra,0x3
    80001580:	50c080e7          	jalr	1292(ra) # 80004a88 <sem_open>
    thread_t threads[threadNum];
    80001584:	00391793          	slli	a5,s2,0x3
    80001588:	00f78793          	addi	a5,a5,15
    8000158c:	ff07f793          	andi	a5,a5,-16
    80001590:	40f10133          	sub	sp,sp,a5
    80001594:	00010a93          	mv	s5,sp
    struct thread_data data[threadNum + 1];
    80001598:	0019071b          	addiw	a4,s2,1
    8000159c:	00171793          	slli	a5,a4,0x1
    800015a0:	00e787b3          	add	a5,a5,a4
    800015a4:	00379793          	slli	a5,a5,0x3
    800015a8:	00f78793          	addi	a5,a5,15
    800015ac:	ff07f793          	andi	a5,a5,-16
    800015b0:	40f10133          	sub	sp,sp,a5
    800015b4:	00010993          	mv	s3,sp
    data[threadNum].id = threadNum;
    800015b8:	00191613          	slli	a2,s2,0x1
    800015bc:	012607b3          	add	a5,a2,s2
    800015c0:	00379793          	slli	a5,a5,0x3
    800015c4:	00f987b3          	add	a5,s3,a5
    800015c8:	0127a023          	sw	s2,0(a5)
    data[threadNum].buffer = buffer;
    800015cc:	0147b423          	sd	s4,8(a5)
    data[threadNum].wait = waitForAll;
    800015d0:	0000c717          	auipc	a4,0xc
    800015d4:	8e873703          	ld	a4,-1816(a4) # 8000ceb8 <_ZL10waitForAll>
    800015d8:	00e7b823          	sd	a4,16(a5)
    thread_create(&consumerThread, consumer, data + threadNum);
    800015dc:	00078613          	mv	a2,a5
    800015e0:	00000597          	auipc	a1,0x0
    800015e4:	d7458593          	addi	a1,a1,-652 # 80001354 <_ZL8consumerPv>
    800015e8:	f9840513          	addi	a0,s0,-104
    800015ec:	00003097          	auipc	ra,0x3
    800015f0:	3a4080e7          	jalr	932(ra) # 80004990 <thread_create>
    for (int i = 0; i < threadNum; i++) {
    800015f4:	00000493          	li	s1,0
    800015f8:	0280006f          	j	80001620 <_Z22producerConsumer_C_APIv+0x1ec>
        thread_create(threads + i,
    800015fc:	00000597          	auipc	a1,0x0
    80001600:	c1458593          	addi	a1,a1,-1004 # 80001210 <_ZL16producerKeyboardPv>
                      data + i);
    80001604:	00179613          	slli	a2,a5,0x1
    80001608:	00f60633          	add	a2,a2,a5
    8000160c:	00361613          	slli	a2,a2,0x3
        thread_create(threads + i,
    80001610:	00c98633          	add	a2,s3,a2
    80001614:	00003097          	auipc	ra,0x3
    80001618:	37c080e7          	jalr	892(ra) # 80004990 <thread_create>
    for (int i = 0; i < threadNum; i++) {
    8000161c:	0014849b          	addiw	s1,s1,1
    80001620:	0524d263          	bge	s1,s2,80001664 <_Z22producerConsumer_C_APIv+0x230>
        data[i].id = i;
    80001624:	00149793          	slli	a5,s1,0x1
    80001628:	009787b3          	add	a5,a5,s1
    8000162c:	00379793          	slli	a5,a5,0x3
    80001630:	00f987b3          	add	a5,s3,a5
    80001634:	0097a023          	sw	s1,0(a5)
        data[i].buffer = buffer;
    80001638:	0147b423          	sd	s4,8(a5)
        data[i].wait = waitForAll;
    8000163c:	0000c717          	auipc	a4,0xc
    80001640:	87c73703          	ld	a4,-1924(a4) # 8000ceb8 <_ZL10waitForAll>
    80001644:	00e7b823          	sd	a4,16(a5)
        thread_create(threads + i,
    80001648:	00048793          	mv	a5,s1
    8000164c:	00349513          	slli	a0,s1,0x3
    80001650:	00aa8533          	add	a0,s5,a0
    80001654:	fa9054e3          	blez	s1,800015fc <_Z22producerConsumer_C_APIv+0x1c8>
    80001658:	00000597          	auipc	a1,0x0
    8000165c:	c6858593          	addi	a1,a1,-920 # 800012c0 <_ZL8producerPv>
    80001660:	fa5ff06f          	j	80001604 <_Z22producerConsumer_C_APIv+0x1d0>
    thread_dispatch();
    80001664:	00003097          	auipc	ra,0x3
    80001668:	3e8080e7          	jalr	1000(ra) # 80004a4c <thread_dispatch>
    for (int i = 0; i <= threadNum; i++) {
    8000166c:	00000493          	li	s1,0
    80001670:	00994e63          	blt	s2,s1,8000168c <_Z22producerConsumer_C_APIv+0x258>
        sem_wait(waitForAll);
    80001674:	0000c517          	auipc	a0,0xc
    80001678:	84453503          	ld	a0,-1980(a0) # 8000ceb8 <_ZL10waitForAll>
    8000167c:	00003097          	auipc	ra,0x3
    80001680:	490080e7          	jalr	1168(ra) # 80004b0c <sem_wait>
    for (int i = 0; i <= threadNum; i++) {
    80001684:	0014849b          	addiw	s1,s1,1
    80001688:	fe9ff06f          	j	80001670 <_Z22producerConsumer_C_APIv+0x23c>
    sem_close(waitForAll);
    8000168c:	0000c517          	auipc	a0,0xc
    80001690:	82c53503          	ld	a0,-2004(a0) # 8000ceb8 <_ZL10waitForAll>
    80001694:	00003097          	auipc	ra,0x3
    80001698:	438080e7          	jalr	1080(ra) # 80004acc <sem_close>
    delete buffer;
    8000169c:	000a0e63          	beqz	s4,800016b8 <_Z22producerConsumer_C_APIv+0x284>
    800016a0:	000a0513          	mv	a0,s4
    800016a4:	00003097          	auipc	ra,0x3
    800016a8:	154080e7          	jalr	340(ra) # 800047f8 <_ZN6BufferD1Ev>
    800016ac:	000a0513          	mv	a0,s4
    800016b0:	00005097          	auipc	ra,0x5
    800016b4:	2d0080e7          	jalr	720(ra) # 80006980 <_ZdlPv>
    800016b8:	000b0113          	mv	sp,s6

}
    800016bc:	f9040113          	addi	sp,s0,-112
    800016c0:	06813083          	ld	ra,104(sp)
    800016c4:	06013403          	ld	s0,96(sp)
    800016c8:	05813483          	ld	s1,88(sp)
    800016cc:	05013903          	ld	s2,80(sp)
    800016d0:	04813983          	ld	s3,72(sp)
    800016d4:	04013a03          	ld	s4,64(sp)
    800016d8:	03813a83          	ld	s5,56(sp)
    800016dc:	03013b03          	ld	s6,48(sp)
    800016e0:	07010113          	addi	sp,sp,112
    800016e4:	00008067          	ret
    800016e8:	00050493          	mv	s1,a0
    Buffer *buffer = new Buffer(n);
    800016ec:	000a0513          	mv	a0,s4
    800016f0:	00005097          	auipc	ra,0x5
    800016f4:	290080e7          	jalr	656(ra) # 80006980 <_ZdlPv>
    800016f8:	00048513          	mv	a0,s1
    800016fc:	0000d097          	auipc	ra,0xd
    80001700:	94c080e7          	jalr	-1716(ra) # 8000e048 <_Unwind_Resume>

0000000080001704 <_ZL9fibonaccim>:
static volatile bool finishedA = false;
static volatile bool finishedB = false;
static volatile bool finishedC = false;
static volatile bool finishedD = false;

static uint64 fibonacci(uint64 n) {
    80001704:	fe010113          	addi	sp,sp,-32
    80001708:	00113c23          	sd	ra,24(sp)
    8000170c:	00813823          	sd	s0,16(sp)
    80001710:	00913423          	sd	s1,8(sp)
    80001714:	01213023          	sd	s2,0(sp)
    80001718:	02010413          	addi	s0,sp,32
    8000171c:	00050493          	mv	s1,a0
    if (n == 0 || n == 1) { return n; }
    80001720:	00100793          	li	a5,1
    80001724:	02a7f863          	bgeu	a5,a0,80001754 <_ZL9fibonaccim+0x50>
    if (n % 10 == 0) { thread_dispatch(); }
    80001728:	00a00793          	li	a5,10
    8000172c:	02f577b3          	remu	a5,a0,a5
    80001730:	02078e63          	beqz	a5,8000176c <_ZL9fibonaccim+0x68>
    return fibonacci(n - 1) + fibonacci(n - 2);
    80001734:	fff48513          	addi	a0,s1,-1
    80001738:	00000097          	auipc	ra,0x0
    8000173c:	fcc080e7          	jalr	-52(ra) # 80001704 <_ZL9fibonaccim>
    80001740:	00050913          	mv	s2,a0
    80001744:	ffe48513          	addi	a0,s1,-2
    80001748:	00000097          	auipc	ra,0x0
    8000174c:	fbc080e7          	jalr	-68(ra) # 80001704 <_ZL9fibonaccim>
    80001750:	00a90533          	add	a0,s2,a0
}
    80001754:	01813083          	ld	ra,24(sp)
    80001758:	01013403          	ld	s0,16(sp)
    8000175c:	00813483          	ld	s1,8(sp)
    80001760:	00013903          	ld	s2,0(sp)
    80001764:	02010113          	addi	sp,sp,32
    80001768:	00008067          	ret
    if (n % 10 == 0) { thread_dispatch(); }
    8000176c:	00003097          	auipc	ra,0x3
    80001770:	2e0080e7          	jalr	736(ra) # 80004a4c <thread_dispatch>
    80001774:	fc1ff06f          	j	80001734 <_ZL9fibonaccim+0x30>

0000000080001778 <_ZN7WorkerA11workerBodyAEPv>:
    void run() override {
        workerBodyD(nullptr);
    }
};

void WorkerA::workerBodyA(void *arg) {
    80001778:	fe010113          	addi	sp,sp,-32
    8000177c:	00113c23          	sd	ra,24(sp)
    80001780:	00813823          	sd	s0,16(sp)
    80001784:	00913423          	sd	s1,8(sp)
    80001788:	01213023          	sd	s2,0(sp)
    8000178c:	02010413          	addi	s0,sp,32
    for (uint64 i = 0; i < 10; i++) {
    80001790:	00000913          	li	s2,0
    80001794:	0380006f          	j	800017cc <_ZN7WorkerA11workerBodyAEPv+0x54>
        printString("A: i="); printInt(i); printString("\n");
        for (uint64 j = 0; j < 10000; j++) {
            for (uint64 k = 0; k < 30000; k++) { /* busy wait */ }
            thread_dispatch();
    80001798:	00003097          	auipc	ra,0x3
    8000179c:	2b4080e7          	jalr	692(ra) # 80004a4c <thread_dispatch>
        for (uint64 j = 0; j < 10000; j++) {
    800017a0:	00148493          	addi	s1,s1,1
    800017a4:	000027b7          	lui	a5,0x2
    800017a8:	70f78793          	addi	a5,a5,1807 # 270f <_entry-0x7fffd8f1>
    800017ac:	0097ee63          	bltu	a5,s1,800017c8 <_ZN7WorkerA11workerBodyAEPv+0x50>
            for (uint64 k = 0; k < 30000; k++) { /* busy wait */ }
    800017b0:	00000713          	li	a4,0
    800017b4:	000077b7          	lui	a5,0x7
    800017b8:	52f78793          	addi	a5,a5,1327 # 752f <_entry-0x7fff8ad1>
    800017bc:	fce7eee3          	bltu	a5,a4,80001798 <_ZN7WorkerA11workerBodyAEPv+0x20>
    800017c0:	00170713          	addi	a4,a4,1
    800017c4:	ff1ff06f          	j	800017b4 <_ZN7WorkerA11workerBodyAEPv+0x3c>
    for (uint64 i = 0; i < 10; i++) {
    800017c8:	00190913          	addi	s2,s2,1
    800017cc:	00900793          	li	a5,9
    800017d0:	0527e063          	bltu	a5,s2,80001810 <_ZN7WorkerA11workerBodyAEPv+0x98>
        printString("A: i="); printInt(i); printString("\n");
    800017d4:	00009517          	auipc	a0,0x9
    800017d8:	92c50513          	addi	a0,a0,-1748 # 8000a100 <CONSOLE_STATUS+0xf0>
    800017dc:	00002097          	auipc	ra,0x2
    800017e0:	eac080e7          	jalr	-340(ra) # 80003688 <_Z11printStringPKc>
    800017e4:	00000613          	li	a2,0
    800017e8:	00a00593          	li	a1,10
    800017ec:	0009051b          	sext.w	a0,s2
    800017f0:	00002097          	auipc	ra,0x2
    800017f4:	048080e7          	jalr	72(ra) # 80003838 <_Z8printIntiii>
    800017f8:	00009517          	auipc	a0,0x9
    800017fc:	b5850513          	addi	a0,a0,-1192 # 8000a350 <CONSOLE_STATUS+0x340>
    80001800:	00002097          	auipc	ra,0x2
    80001804:	e88080e7          	jalr	-376(ra) # 80003688 <_Z11printStringPKc>
        for (uint64 j = 0; j < 10000; j++) {
    80001808:	00000493          	li	s1,0
    8000180c:	f99ff06f          	j	800017a4 <_ZN7WorkerA11workerBodyAEPv+0x2c>
        }
    }
    printString("A finished!\n");
    80001810:	00009517          	auipc	a0,0x9
    80001814:	8f850513          	addi	a0,a0,-1800 # 8000a108 <CONSOLE_STATUS+0xf8>
    80001818:	00002097          	auipc	ra,0x2
    8000181c:	e70080e7          	jalr	-400(ra) # 80003688 <_Z11printStringPKc>
    finishedA = true;
    80001820:	00100793          	li	a5,1
    80001824:	0000b717          	auipc	a4,0xb
    80001828:	68f70e23          	sb	a5,1692(a4) # 8000cec0 <_ZL9finishedA>
}
    8000182c:	01813083          	ld	ra,24(sp)
    80001830:	01013403          	ld	s0,16(sp)
    80001834:	00813483          	ld	s1,8(sp)
    80001838:	00013903          	ld	s2,0(sp)
    8000183c:	02010113          	addi	sp,sp,32
    80001840:	00008067          	ret

0000000080001844 <_ZN7WorkerB11workerBodyBEPv>:

void WorkerB::workerBodyB(void *arg) {
    80001844:	fe010113          	addi	sp,sp,-32
    80001848:	00113c23          	sd	ra,24(sp)
    8000184c:	00813823          	sd	s0,16(sp)
    80001850:	00913423          	sd	s1,8(sp)
    80001854:	01213023          	sd	s2,0(sp)
    80001858:	02010413          	addi	s0,sp,32
    for (uint64 i = 0; i < 16; i++) {
    8000185c:	00000913          	li	s2,0
    80001860:	0380006f          	j	80001898 <_ZN7WorkerB11workerBodyBEPv+0x54>
        printString("B: i="); printInt(i); printString("\n");
        for (uint64 j = 0; j < 10000; j++) {
            for (uint64 k = 0; k < 30000; k++) { /* busy wait */ }
            thread_dispatch();
    80001864:	00003097          	auipc	ra,0x3
    80001868:	1e8080e7          	jalr	488(ra) # 80004a4c <thread_dispatch>
        for (uint64 j = 0; j < 10000; j++) {
    8000186c:	00148493          	addi	s1,s1,1
    80001870:	000027b7          	lui	a5,0x2
    80001874:	70f78793          	addi	a5,a5,1807 # 270f <_entry-0x7fffd8f1>
    80001878:	0097ee63          	bltu	a5,s1,80001894 <_ZN7WorkerB11workerBodyBEPv+0x50>
            for (uint64 k = 0; k < 30000; k++) { /* busy wait */ }
    8000187c:	00000713          	li	a4,0
    80001880:	000077b7          	lui	a5,0x7
    80001884:	52f78793          	addi	a5,a5,1327 # 752f <_entry-0x7fff8ad1>
    80001888:	fce7eee3          	bltu	a5,a4,80001864 <_ZN7WorkerB11workerBodyBEPv+0x20>
    8000188c:	00170713          	addi	a4,a4,1
    80001890:	ff1ff06f          	j	80001880 <_ZN7WorkerB11workerBodyBEPv+0x3c>
    for (uint64 i = 0; i < 16; i++) {
    80001894:	00190913          	addi	s2,s2,1
    80001898:	00f00793          	li	a5,15
    8000189c:	0527e063          	bltu	a5,s2,800018dc <_ZN7WorkerB11workerBodyBEPv+0x98>
        printString("B: i="); printInt(i); printString("\n");
    800018a0:	00009517          	auipc	a0,0x9
    800018a4:	87850513          	addi	a0,a0,-1928 # 8000a118 <CONSOLE_STATUS+0x108>
    800018a8:	00002097          	auipc	ra,0x2
    800018ac:	de0080e7          	jalr	-544(ra) # 80003688 <_Z11printStringPKc>
    800018b0:	00000613          	li	a2,0
    800018b4:	00a00593          	li	a1,10
    800018b8:	0009051b          	sext.w	a0,s2
    800018bc:	00002097          	auipc	ra,0x2
    800018c0:	f7c080e7          	jalr	-132(ra) # 80003838 <_Z8printIntiii>
    800018c4:	00009517          	auipc	a0,0x9
    800018c8:	a8c50513          	addi	a0,a0,-1396 # 8000a350 <CONSOLE_STATUS+0x340>
    800018cc:	00002097          	auipc	ra,0x2
    800018d0:	dbc080e7          	jalr	-580(ra) # 80003688 <_Z11printStringPKc>
        for (uint64 j = 0; j < 10000; j++) {
    800018d4:	00000493          	li	s1,0
    800018d8:	f99ff06f          	j	80001870 <_ZN7WorkerB11workerBodyBEPv+0x2c>
        }
    }
    printString("B finished!\n");
    800018dc:	00009517          	auipc	a0,0x9
    800018e0:	84450513          	addi	a0,a0,-1980 # 8000a120 <CONSOLE_STATUS+0x110>
    800018e4:	00002097          	auipc	ra,0x2
    800018e8:	da4080e7          	jalr	-604(ra) # 80003688 <_Z11printStringPKc>
    finishedB = true;
    800018ec:	00100793          	li	a5,1
    800018f0:	0000b717          	auipc	a4,0xb
    800018f4:	5cf708a3          	sb	a5,1489(a4) # 8000cec1 <_ZL9finishedB>
    thread_dispatch();
    800018f8:	00003097          	auipc	ra,0x3
    800018fc:	154080e7          	jalr	340(ra) # 80004a4c <thread_dispatch>
}
    80001900:	01813083          	ld	ra,24(sp)
    80001904:	01013403          	ld	s0,16(sp)
    80001908:	00813483          	ld	s1,8(sp)
    8000190c:	00013903          	ld	s2,0(sp)
    80001910:	02010113          	addi	sp,sp,32
    80001914:	00008067          	ret

0000000080001918 <_ZN7WorkerC11workerBodyCEPv>:

void WorkerC::workerBodyC(void *arg) {
    80001918:	fe010113          	addi	sp,sp,-32
    8000191c:	00113c23          	sd	ra,24(sp)
    80001920:	00813823          	sd	s0,16(sp)
    80001924:	00913423          	sd	s1,8(sp)
    80001928:	01213023          	sd	s2,0(sp)
    8000192c:	02010413          	addi	s0,sp,32
    uint8 i = 0;
    80001930:	00000493          	li	s1,0
    80001934:	0400006f          	j	80001974 <_ZN7WorkerC11workerBodyCEPv+0x5c>
    for (; i < 3; i++) {
        printString("C: i="); printInt(i); printString("\n");
    80001938:	00008517          	auipc	a0,0x8
    8000193c:	7f850513          	addi	a0,a0,2040 # 8000a130 <CONSOLE_STATUS+0x120>
    80001940:	00002097          	auipc	ra,0x2
    80001944:	d48080e7          	jalr	-696(ra) # 80003688 <_Z11printStringPKc>
    80001948:	00000613          	li	a2,0
    8000194c:	00a00593          	li	a1,10
    80001950:	00048513          	mv	a0,s1
    80001954:	00002097          	auipc	ra,0x2
    80001958:	ee4080e7          	jalr	-284(ra) # 80003838 <_Z8printIntiii>
    8000195c:	00009517          	auipc	a0,0x9
    80001960:	9f450513          	addi	a0,a0,-1548 # 8000a350 <CONSOLE_STATUS+0x340>
    80001964:	00002097          	auipc	ra,0x2
    80001968:	d24080e7          	jalr	-732(ra) # 80003688 <_Z11printStringPKc>
    for (; i < 3; i++) {
    8000196c:	0014849b          	addiw	s1,s1,1
    80001970:	0ff4f493          	andi	s1,s1,255
    80001974:	00200793          	li	a5,2
    80001978:	fc97f0e3          	bgeu	a5,s1,80001938 <_ZN7WorkerC11workerBodyCEPv+0x20>
    }

    printString("C: dispatch\n");
    8000197c:	00008517          	auipc	a0,0x8
    80001980:	7bc50513          	addi	a0,a0,1980 # 8000a138 <CONSOLE_STATUS+0x128>
    80001984:	00002097          	auipc	ra,0x2
    80001988:	d04080e7          	jalr	-764(ra) # 80003688 <_Z11printStringPKc>
    __asm__ ("li t1, 7");
    8000198c:	00700313          	li	t1,7
    thread_dispatch();
    80001990:	00003097          	auipc	ra,0x3
    80001994:	0bc080e7          	jalr	188(ra) # 80004a4c <thread_dispatch>

    uint64 t1 = 0;
    __asm__ ("mv %[t1], t1" : [t1] "=r"(t1));
    80001998:	00030913          	mv	s2,t1

    printString("C: t1="); printInt(t1); printString("\n");
    8000199c:	00008517          	auipc	a0,0x8
    800019a0:	7ac50513          	addi	a0,a0,1964 # 8000a148 <CONSOLE_STATUS+0x138>
    800019a4:	00002097          	auipc	ra,0x2
    800019a8:	ce4080e7          	jalr	-796(ra) # 80003688 <_Z11printStringPKc>
    800019ac:	00000613          	li	a2,0
    800019b0:	00a00593          	li	a1,10
    800019b4:	0009051b          	sext.w	a0,s2
    800019b8:	00002097          	auipc	ra,0x2
    800019bc:	e80080e7          	jalr	-384(ra) # 80003838 <_Z8printIntiii>
    800019c0:	00009517          	auipc	a0,0x9
    800019c4:	99050513          	addi	a0,a0,-1648 # 8000a350 <CONSOLE_STATUS+0x340>
    800019c8:	00002097          	auipc	ra,0x2
    800019cc:	cc0080e7          	jalr	-832(ra) # 80003688 <_Z11printStringPKc>

    uint64 result = fibonacci(12);
    800019d0:	00c00513          	li	a0,12
    800019d4:	00000097          	auipc	ra,0x0
    800019d8:	d30080e7          	jalr	-720(ra) # 80001704 <_ZL9fibonaccim>
    800019dc:	00050913          	mv	s2,a0
    printString("C: fibonaci="); printInt(result); printString("\n");
    800019e0:	00008517          	auipc	a0,0x8
    800019e4:	77050513          	addi	a0,a0,1904 # 8000a150 <CONSOLE_STATUS+0x140>
    800019e8:	00002097          	auipc	ra,0x2
    800019ec:	ca0080e7          	jalr	-864(ra) # 80003688 <_Z11printStringPKc>
    800019f0:	00000613          	li	a2,0
    800019f4:	00a00593          	li	a1,10
    800019f8:	0009051b          	sext.w	a0,s2
    800019fc:	00002097          	auipc	ra,0x2
    80001a00:	e3c080e7          	jalr	-452(ra) # 80003838 <_Z8printIntiii>
    80001a04:	00009517          	auipc	a0,0x9
    80001a08:	94c50513          	addi	a0,a0,-1716 # 8000a350 <CONSOLE_STATUS+0x340>
    80001a0c:	00002097          	auipc	ra,0x2
    80001a10:	c7c080e7          	jalr	-900(ra) # 80003688 <_Z11printStringPKc>
    80001a14:	0400006f          	j	80001a54 <_ZN7WorkerC11workerBodyCEPv+0x13c>

    for (; i < 6; i++) {
        printString("C: i="); printInt(i); printString("\n");
    80001a18:	00008517          	auipc	a0,0x8
    80001a1c:	71850513          	addi	a0,a0,1816 # 8000a130 <CONSOLE_STATUS+0x120>
    80001a20:	00002097          	auipc	ra,0x2
    80001a24:	c68080e7          	jalr	-920(ra) # 80003688 <_Z11printStringPKc>
    80001a28:	00000613          	li	a2,0
    80001a2c:	00a00593          	li	a1,10
    80001a30:	00048513          	mv	a0,s1
    80001a34:	00002097          	auipc	ra,0x2
    80001a38:	e04080e7          	jalr	-508(ra) # 80003838 <_Z8printIntiii>
    80001a3c:	00009517          	auipc	a0,0x9
    80001a40:	91450513          	addi	a0,a0,-1772 # 8000a350 <CONSOLE_STATUS+0x340>
    80001a44:	00002097          	auipc	ra,0x2
    80001a48:	c44080e7          	jalr	-956(ra) # 80003688 <_Z11printStringPKc>
    for (; i < 6; i++) {
    80001a4c:	0014849b          	addiw	s1,s1,1
    80001a50:	0ff4f493          	andi	s1,s1,255
    80001a54:	00500793          	li	a5,5
    80001a58:	fc97f0e3          	bgeu	a5,s1,80001a18 <_ZN7WorkerC11workerBodyCEPv+0x100>
    }

    printString("A finished!\n");
    80001a5c:	00008517          	auipc	a0,0x8
    80001a60:	6ac50513          	addi	a0,a0,1708 # 8000a108 <CONSOLE_STATUS+0xf8>
    80001a64:	00002097          	auipc	ra,0x2
    80001a68:	c24080e7          	jalr	-988(ra) # 80003688 <_Z11printStringPKc>
    finishedC = true;
    80001a6c:	00100793          	li	a5,1
    80001a70:	0000b717          	auipc	a4,0xb
    80001a74:	44f70923          	sb	a5,1106(a4) # 8000cec2 <_ZL9finishedC>
    thread_dispatch();
    80001a78:	00003097          	auipc	ra,0x3
    80001a7c:	fd4080e7          	jalr	-44(ra) # 80004a4c <thread_dispatch>
}
    80001a80:	01813083          	ld	ra,24(sp)
    80001a84:	01013403          	ld	s0,16(sp)
    80001a88:	00813483          	ld	s1,8(sp)
    80001a8c:	00013903          	ld	s2,0(sp)
    80001a90:	02010113          	addi	sp,sp,32
    80001a94:	00008067          	ret

0000000080001a98 <_ZN7WorkerD11workerBodyDEPv>:

void WorkerD::workerBodyD(void* arg) {
    80001a98:	fe010113          	addi	sp,sp,-32
    80001a9c:	00113c23          	sd	ra,24(sp)
    80001aa0:	00813823          	sd	s0,16(sp)
    80001aa4:	00913423          	sd	s1,8(sp)
    80001aa8:	01213023          	sd	s2,0(sp)
    80001aac:	02010413          	addi	s0,sp,32
    uint8 i = 10;
    80001ab0:	00a00493          	li	s1,10
    80001ab4:	0400006f          	j	80001af4 <_ZN7WorkerD11workerBodyDEPv+0x5c>
    for (; i < 13; i++) {
        printString("D: i="); printInt(i); printString("\n");
    80001ab8:	00008517          	auipc	a0,0x8
    80001abc:	6a850513          	addi	a0,a0,1704 # 8000a160 <CONSOLE_STATUS+0x150>
    80001ac0:	00002097          	auipc	ra,0x2
    80001ac4:	bc8080e7          	jalr	-1080(ra) # 80003688 <_Z11printStringPKc>
    80001ac8:	00000613          	li	a2,0
    80001acc:	00a00593          	li	a1,10
    80001ad0:	00048513          	mv	a0,s1
    80001ad4:	00002097          	auipc	ra,0x2
    80001ad8:	d64080e7          	jalr	-668(ra) # 80003838 <_Z8printIntiii>
    80001adc:	00009517          	auipc	a0,0x9
    80001ae0:	87450513          	addi	a0,a0,-1932 # 8000a350 <CONSOLE_STATUS+0x340>
    80001ae4:	00002097          	auipc	ra,0x2
    80001ae8:	ba4080e7          	jalr	-1116(ra) # 80003688 <_Z11printStringPKc>
    for (; i < 13; i++) {
    80001aec:	0014849b          	addiw	s1,s1,1
    80001af0:	0ff4f493          	andi	s1,s1,255
    80001af4:	00c00793          	li	a5,12
    80001af8:	fc97f0e3          	bgeu	a5,s1,80001ab8 <_ZN7WorkerD11workerBodyDEPv+0x20>
    }

    printString("D: dispatch\n");
    80001afc:	00008517          	auipc	a0,0x8
    80001b00:	66c50513          	addi	a0,a0,1644 # 8000a168 <CONSOLE_STATUS+0x158>
    80001b04:	00002097          	auipc	ra,0x2
    80001b08:	b84080e7          	jalr	-1148(ra) # 80003688 <_Z11printStringPKc>
    __asm__ ("li t1, 5");
    80001b0c:	00500313          	li	t1,5
    thread_dispatch();
    80001b10:	00003097          	auipc	ra,0x3
    80001b14:	f3c080e7          	jalr	-196(ra) # 80004a4c <thread_dispatch>

    uint64 result = fibonacci(16);
    80001b18:	01000513          	li	a0,16
    80001b1c:	00000097          	auipc	ra,0x0
    80001b20:	be8080e7          	jalr	-1048(ra) # 80001704 <_ZL9fibonaccim>
    80001b24:	00050913          	mv	s2,a0
    printString("D: fibonaci="); printInt(result); printString("\n");
    80001b28:	00008517          	auipc	a0,0x8
    80001b2c:	65050513          	addi	a0,a0,1616 # 8000a178 <CONSOLE_STATUS+0x168>
    80001b30:	00002097          	auipc	ra,0x2
    80001b34:	b58080e7          	jalr	-1192(ra) # 80003688 <_Z11printStringPKc>
    80001b38:	00000613          	li	a2,0
    80001b3c:	00a00593          	li	a1,10
    80001b40:	0009051b          	sext.w	a0,s2
    80001b44:	00002097          	auipc	ra,0x2
    80001b48:	cf4080e7          	jalr	-780(ra) # 80003838 <_Z8printIntiii>
    80001b4c:	00009517          	auipc	a0,0x9
    80001b50:	80450513          	addi	a0,a0,-2044 # 8000a350 <CONSOLE_STATUS+0x340>
    80001b54:	00002097          	auipc	ra,0x2
    80001b58:	b34080e7          	jalr	-1228(ra) # 80003688 <_Z11printStringPKc>
    80001b5c:	0400006f          	j	80001b9c <_ZN7WorkerD11workerBodyDEPv+0x104>

    for (; i < 16; i++) {
        printString("D: i="); printInt(i); printString("\n");
    80001b60:	00008517          	auipc	a0,0x8
    80001b64:	60050513          	addi	a0,a0,1536 # 8000a160 <CONSOLE_STATUS+0x150>
    80001b68:	00002097          	auipc	ra,0x2
    80001b6c:	b20080e7          	jalr	-1248(ra) # 80003688 <_Z11printStringPKc>
    80001b70:	00000613          	li	a2,0
    80001b74:	00a00593          	li	a1,10
    80001b78:	00048513          	mv	a0,s1
    80001b7c:	00002097          	auipc	ra,0x2
    80001b80:	cbc080e7          	jalr	-836(ra) # 80003838 <_Z8printIntiii>
    80001b84:	00008517          	auipc	a0,0x8
    80001b88:	7cc50513          	addi	a0,a0,1996 # 8000a350 <CONSOLE_STATUS+0x340>
    80001b8c:	00002097          	auipc	ra,0x2
    80001b90:	afc080e7          	jalr	-1284(ra) # 80003688 <_Z11printStringPKc>
    for (; i < 16; i++) {
    80001b94:	0014849b          	addiw	s1,s1,1
    80001b98:	0ff4f493          	andi	s1,s1,255
    80001b9c:	00f00793          	li	a5,15
    80001ba0:	fc97f0e3          	bgeu	a5,s1,80001b60 <_ZN7WorkerD11workerBodyDEPv+0xc8>
    }

    printString("D finished!\n");
    80001ba4:	00008517          	auipc	a0,0x8
    80001ba8:	5e450513          	addi	a0,a0,1508 # 8000a188 <CONSOLE_STATUS+0x178>
    80001bac:	00002097          	auipc	ra,0x2
    80001bb0:	adc080e7          	jalr	-1316(ra) # 80003688 <_Z11printStringPKc>
    finishedD = true;
    80001bb4:	00100793          	li	a5,1
    80001bb8:	0000b717          	auipc	a4,0xb
    80001bbc:	30f705a3          	sb	a5,779(a4) # 8000cec3 <_ZL9finishedD>
    thread_dispatch();
    80001bc0:	00003097          	auipc	ra,0x3
    80001bc4:	e8c080e7          	jalr	-372(ra) # 80004a4c <thread_dispatch>
}
    80001bc8:	01813083          	ld	ra,24(sp)
    80001bcc:	01013403          	ld	s0,16(sp)
    80001bd0:	00813483          	ld	s1,8(sp)
    80001bd4:	00013903          	ld	s2,0(sp)
    80001bd8:	02010113          	addi	sp,sp,32
    80001bdc:	00008067          	ret

0000000080001be0 <_Z20Threads_CPP_API_testv>:


void Threads_CPP_API_test() {
    80001be0:	fc010113          	addi	sp,sp,-64
    80001be4:	02113c23          	sd	ra,56(sp)
    80001be8:	02813823          	sd	s0,48(sp)
    80001bec:	02913423          	sd	s1,40(sp)
    80001bf0:	03213023          	sd	s2,32(sp)
    80001bf4:	04010413          	addi	s0,sp,64
    Thread* threads[4];

    threads[0] = new WorkerA();
    80001bf8:	02000513          	li	a0,32
    80001bfc:	00005097          	auipc	ra,0x5
    80001c00:	d5c080e7          	jalr	-676(ra) # 80006958 <_Znwm>
    80001c04:	00050493          	mv	s1,a0
    WorkerA():Thread() {}
    80001c08:	00005097          	auipc	ra,0x5
    80001c0c:	edc080e7          	jalr	-292(ra) # 80006ae4 <_ZN6ThreadC1Ev>
    80001c10:	0000b797          	auipc	a5,0xb
    80001c14:	f8878793          	addi	a5,a5,-120 # 8000cb98 <_ZTV7WorkerA+0x10>
    80001c18:	00f4b023          	sd	a5,0(s1)
    threads[0] = new WorkerA();
    80001c1c:	fc943023          	sd	s1,-64(s0)
    printString("ThreadA created\n");
    80001c20:	00008517          	auipc	a0,0x8
    80001c24:	57850513          	addi	a0,a0,1400 # 8000a198 <CONSOLE_STATUS+0x188>
    80001c28:	00002097          	auipc	ra,0x2
    80001c2c:	a60080e7          	jalr	-1440(ra) # 80003688 <_Z11printStringPKc>

    threads[1] = new WorkerB();
    80001c30:	02000513          	li	a0,32
    80001c34:	00005097          	auipc	ra,0x5
    80001c38:	d24080e7          	jalr	-732(ra) # 80006958 <_Znwm>
    80001c3c:	00050493          	mv	s1,a0
    WorkerB():Thread() {}
    80001c40:	00005097          	auipc	ra,0x5
    80001c44:	ea4080e7          	jalr	-348(ra) # 80006ae4 <_ZN6ThreadC1Ev>
    80001c48:	0000b797          	auipc	a5,0xb
    80001c4c:	f7878793          	addi	a5,a5,-136 # 8000cbc0 <_ZTV7WorkerB+0x10>
    80001c50:	00f4b023          	sd	a5,0(s1)
    threads[1] = new WorkerB();
    80001c54:	fc943423          	sd	s1,-56(s0)
    printString("ThreadB created\n");
    80001c58:	00008517          	auipc	a0,0x8
    80001c5c:	55850513          	addi	a0,a0,1368 # 8000a1b0 <CONSOLE_STATUS+0x1a0>
    80001c60:	00002097          	auipc	ra,0x2
    80001c64:	a28080e7          	jalr	-1496(ra) # 80003688 <_Z11printStringPKc>

    threads[2] = new WorkerC();
    80001c68:	02000513          	li	a0,32
    80001c6c:	00005097          	auipc	ra,0x5
    80001c70:	cec080e7          	jalr	-788(ra) # 80006958 <_Znwm>
    80001c74:	00050493          	mv	s1,a0
    WorkerC():Thread() {}
    80001c78:	00005097          	auipc	ra,0x5
    80001c7c:	e6c080e7          	jalr	-404(ra) # 80006ae4 <_ZN6ThreadC1Ev>
    80001c80:	0000b797          	auipc	a5,0xb
    80001c84:	f6878793          	addi	a5,a5,-152 # 8000cbe8 <_ZTV7WorkerC+0x10>
    80001c88:	00f4b023          	sd	a5,0(s1)
    threads[2] = new WorkerC();
    80001c8c:	fc943823          	sd	s1,-48(s0)
    printString("ThreadC created\n");
    80001c90:	00008517          	auipc	a0,0x8
    80001c94:	53850513          	addi	a0,a0,1336 # 8000a1c8 <CONSOLE_STATUS+0x1b8>
    80001c98:	00002097          	auipc	ra,0x2
    80001c9c:	9f0080e7          	jalr	-1552(ra) # 80003688 <_Z11printStringPKc>

    threads[3] = new WorkerD();
    80001ca0:	02000513          	li	a0,32
    80001ca4:	00005097          	auipc	ra,0x5
    80001ca8:	cb4080e7          	jalr	-844(ra) # 80006958 <_Znwm>
    80001cac:	00050493          	mv	s1,a0
    WorkerD():Thread() {}
    80001cb0:	00005097          	auipc	ra,0x5
    80001cb4:	e34080e7          	jalr	-460(ra) # 80006ae4 <_ZN6ThreadC1Ev>
    80001cb8:	0000b797          	auipc	a5,0xb
    80001cbc:	f5878793          	addi	a5,a5,-168 # 8000cc10 <_ZTV7WorkerD+0x10>
    80001cc0:	00f4b023          	sd	a5,0(s1)
    threads[3] = new WorkerD();
    80001cc4:	fc943c23          	sd	s1,-40(s0)
    printString("ThreadD created\n");
    80001cc8:	00008517          	auipc	a0,0x8
    80001ccc:	51850513          	addi	a0,a0,1304 # 8000a1e0 <CONSOLE_STATUS+0x1d0>
    80001cd0:	00002097          	auipc	ra,0x2
    80001cd4:	9b8080e7          	jalr	-1608(ra) # 80003688 <_Z11printStringPKc>

    for(int i=0; i<4; i++) {
    80001cd8:	00000493          	li	s1,0
    80001cdc:	00300793          	li	a5,3
    80001ce0:	0297c663          	blt	a5,s1,80001d0c <_Z20Threads_CPP_API_testv+0x12c>
        threads[i]->start();
    80001ce4:	00349793          	slli	a5,s1,0x3
    80001ce8:	fe040713          	addi	a4,s0,-32
    80001cec:	00f707b3          	add	a5,a4,a5
    80001cf0:	fe07b503          	ld	a0,-32(a5)
    80001cf4:	00005097          	auipc	ra,0x5
    80001cf8:	d4c080e7          	jalr	-692(ra) # 80006a40 <_ZN6Thread5startEv>
    for(int i=0; i<4; i++) {
    80001cfc:	0014849b          	addiw	s1,s1,1
    80001d00:	fddff06f          	j	80001cdc <_Z20Threads_CPP_API_testv+0xfc>
    }

    while (!(finishedA && finishedB && finishedC && finishedD)) {
        Thread::dispatch();
    80001d04:	00005097          	auipc	ra,0x5
    80001d08:	d90080e7          	jalr	-624(ra) # 80006a94 <_ZN6Thread8dispatchEv>
    while (!(finishedA && finishedB && finishedC && finishedD)) {
    80001d0c:	0000b797          	auipc	a5,0xb
    80001d10:	1b47c783          	lbu	a5,436(a5) # 8000cec0 <_ZL9finishedA>
    80001d14:	fe0788e3          	beqz	a5,80001d04 <_Z20Threads_CPP_API_testv+0x124>
    80001d18:	0000b797          	auipc	a5,0xb
    80001d1c:	1a97c783          	lbu	a5,425(a5) # 8000cec1 <_ZL9finishedB>
    80001d20:	fe0782e3          	beqz	a5,80001d04 <_Z20Threads_CPP_API_testv+0x124>
    80001d24:	0000b797          	auipc	a5,0xb
    80001d28:	19e7c783          	lbu	a5,414(a5) # 8000cec2 <_ZL9finishedC>
    80001d2c:	fc078ce3          	beqz	a5,80001d04 <_Z20Threads_CPP_API_testv+0x124>
    80001d30:	0000b797          	auipc	a5,0xb
    80001d34:	1937c783          	lbu	a5,403(a5) # 8000cec3 <_ZL9finishedD>
    80001d38:	fc0786e3          	beqz	a5,80001d04 <_Z20Threads_CPP_API_testv+0x124>
    80001d3c:	fc040493          	addi	s1,s0,-64
    80001d40:	0080006f          	j	80001d48 <_Z20Threads_CPP_API_testv+0x168>
    }

    for (auto thread: threads) { delete thread; }
    80001d44:	00848493          	addi	s1,s1,8
    80001d48:	fe040793          	addi	a5,s0,-32
    80001d4c:	08f48663          	beq	s1,a5,80001dd8 <_Z20Threads_CPP_API_testv+0x1f8>
    80001d50:	0004b503          	ld	a0,0(s1)
    80001d54:	fe0508e3          	beqz	a0,80001d44 <_Z20Threads_CPP_API_testv+0x164>
    80001d58:	00053783          	ld	a5,0(a0)
    80001d5c:	0087b783          	ld	a5,8(a5)
    80001d60:	000780e7          	jalr	a5
    80001d64:	fe1ff06f          	j	80001d44 <_Z20Threads_CPP_API_testv+0x164>
    80001d68:	00050913          	mv	s2,a0
    threads[0] = new WorkerA();
    80001d6c:	00048513          	mv	a0,s1
    80001d70:	00005097          	auipc	ra,0x5
    80001d74:	c10080e7          	jalr	-1008(ra) # 80006980 <_ZdlPv>
    80001d78:	00090513          	mv	a0,s2
    80001d7c:	0000c097          	auipc	ra,0xc
    80001d80:	2cc080e7          	jalr	716(ra) # 8000e048 <_Unwind_Resume>
    80001d84:	00050913          	mv	s2,a0
    threads[1] = new WorkerB();
    80001d88:	00048513          	mv	a0,s1
    80001d8c:	00005097          	auipc	ra,0x5
    80001d90:	bf4080e7          	jalr	-1036(ra) # 80006980 <_ZdlPv>
    80001d94:	00090513          	mv	a0,s2
    80001d98:	0000c097          	auipc	ra,0xc
    80001d9c:	2b0080e7          	jalr	688(ra) # 8000e048 <_Unwind_Resume>
    80001da0:	00050913          	mv	s2,a0
    threads[2] = new WorkerC();
    80001da4:	00048513          	mv	a0,s1
    80001da8:	00005097          	auipc	ra,0x5
    80001dac:	bd8080e7          	jalr	-1064(ra) # 80006980 <_ZdlPv>
    80001db0:	00090513          	mv	a0,s2
    80001db4:	0000c097          	auipc	ra,0xc
    80001db8:	294080e7          	jalr	660(ra) # 8000e048 <_Unwind_Resume>
    80001dbc:	00050913          	mv	s2,a0
    threads[3] = new WorkerD();
    80001dc0:	00048513          	mv	a0,s1
    80001dc4:	00005097          	auipc	ra,0x5
    80001dc8:	bbc080e7          	jalr	-1092(ra) # 80006980 <_ZdlPv>
    80001dcc:	00090513          	mv	a0,s2
    80001dd0:	0000c097          	auipc	ra,0xc
    80001dd4:	278080e7          	jalr	632(ra) # 8000e048 <_Unwind_Resume>
}
    80001dd8:	03813083          	ld	ra,56(sp)
    80001ddc:	03013403          	ld	s0,48(sp)
    80001de0:	02813483          	ld	s1,40(sp)
    80001de4:	02013903          	ld	s2,32(sp)
    80001de8:	04010113          	addi	sp,sp,64
    80001dec:	00008067          	ret

0000000080001df0 <_ZN7WorkerAD1Ev>:
class WorkerA: public Thread {
    80001df0:	ff010113          	addi	sp,sp,-16
    80001df4:	00113423          	sd	ra,8(sp)
    80001df8:	00813023          	sd	s0,0(sp)
    80001dfc:	01010413          	addi	s0,sp,16
    80001e00:	0000b797          	auipc	a5,0xb
    80001e04:	d9878793          	addi	a5,a5,-616 # 8000cb98 <_ZTV7WorkerA+0x10>
    80001e08:	00f53023          	sd	a5,0(a0)
    80001e0c:	00005097          	auipc	ra,0x5
    80001e10:	ad0080e7          	jalr	-1328(ra) # 800068dc <_ZN6ThreadD1Ev>
    80001e14:	00813083          	ld	ra,8(sp)
    80001e18:	00013403          	ld	s0,0(sp)
    80001e1c:	01010113          	addi	sp,sp,16
    80001e20:	00008067          	ret

0000000080001e24 <_ZN7WorkerAD0Ev>:
    80001e24:	fe010113          	addi	sp,sp,-32
    80001e28:	00113c23          	sd	ra,24(sp)
    80001e2c:	00813823          	sd	s0,16(sp)
    80001e30:	00913423          	sd	s1,8(sp)
    80001e34:	02010413          	addi	s0,sp,32
    80001e38:	00050493          	mv	s1,a0
    80001e3c:	0000b797          	auipc	a5,0xb
    80001e40:	d5c78793          	addi	a5,a5,-676 # 8000cb98 <_ZTV7WorkerA+0x10>
    80001e44:	00f53023          	sd	a5,0(a0)
    80001e48:	00005097          	auipc	ra,0x5
    80001e4c:	a94080e7          	jalr	-1388(ra) # 800068dc <_ZN6ThreadD1Ev>
    80001e50:	00048513          	mv	a0,s1
    80001e54:	00005097          	auipc	ra,0x5
    80001e58:	b2c080e7          	jalr	-1236(ra) # 80006980 <_ZdlPv>
    80001e5c:	01813083          	ld	ra,24(sp)
    80001e60:	01013403          	ld	s0,16(sp)
    80001e64:	00813483          	ld	s1,8(sp)
    80001e68:	02010113          	addi	sp,sp,32
    80001e6c:	00008067          	ret

0000000080001e70 <_ZN7WorkerBD1Ev>:
class WorkerB: public Thread {
    80001e70:	ff010113          	addi	sp,sp,-16
    80001e74:	00113423          	sd	ra,8(sp)
    80001e78:	00813023          	sd	s0,0(sp)
    80001e7c:	01010413          	addi	s0,sp,16
    80001e80:	0000b797          	auipc	a5,0xb
    80001e84:	d4078793          	addi	a5,a5,-704 # 8000cbc0 <_ZTV7WorkerB+0x10>
    80001e88:	00f53023          	sd	a5,0(a0)
    80001e8c:	00005097          	auipc	ra,0x5
    80001e90:	a50080e7          	jalr	-1456(ra) # 800068dc <_ZN6ThreadD1Ev>
    80001e94:	00813083          	ld	ra,8(sp)
    80001e98:	00013403          	ld	s0,0(sp)
    80001e9c:	01010113          	addi	sp,sp,16
    80001ea0:	00008067          	ret

0000000080001ea4 <_ZN7WorkerBD0Ev>:
    80001ea4:	fe010113          	addi	sp,sp,-32
    80001ea8:	00113c23          	sd	ra,24(sp)
    80001eac:	00813823          	sd	s0,16(sp)
    80001eb0:	00913423          	sd	s1,8(sp)
    80001eb4:	02010413          	addi	s0,sp,32
    80001eb8:	00050493          	mv	s1,a0
    80001ebc:	0000b797          	auipc	a5,0xb
    80001ec0:	d0478793          	addi	a5,a5,-764 # 8000cbc0 <_ZTV7WorkerB+0x10>
    80001ec4:	00f53023          	sd	a5,0(a0)
    80001ec8:	00005097          	auipc	ra,0x5
    80001ecc:	a14080e7          	jalr	-1516(ra) # 800068dc <_ZN6ThreadD1Ev>
    80001ed0:	00048513          	mv	a0,s1
    80001ed4:	00005097          	auipc	ra,0x5
    80001ed8:	aac080e7          	jalr	-1364(ra) # 80006980 <_ZdlPv>
    80001edc:	01813083          	ld	ra,24(sp)
    80001ee0:	01013403          	ld	s0,16(sp)
    80001ee4:	00813483          	ld	s1,8(sp)
    80001ee8:	02010113          	addi	sp,sp,32
    80001eec:	00008067          	ret

0000000080001ef0 <_ZN7WorkerCD1Ev>:
class WorkerC: public Thread {
    80001ef0:	ff010113          	addi	sp,sp,-16
    80001ef4:	00113423          	sd	ra,8(sp)
    80001ef8:	00813023          	sd	s0,0(sp)
    80001efc:	01010413          	addi	s0,sp,16
    80001f00:	0000b797          	auipc	a5,0xb
    80001f04:	ce878793          	addi	a5,a5,-792 # 8000cbe8 <_ZTV7WorkerC+0x10>
    80001f08:	00f53023          	sd	a5,0(a0)
    80001f0c:	00005097          	auipc	ra,0x5
    80001f10:	9d0080e7          	jalr	-1584(ra) # 800068dc <_ZN6ThreadD1Ev>
    80001f14:	00813083          	ld	ra,8(sp)
    80001f18:	00013403          	ld	s0,0(sp)
    80001f1c:	01010113          	addi	sp,sp,16
    80001f20:	00008067          	ret

0000000080001f24 <_ZN7WorkerCD0Ev>:
    80001f24:	fe010113          	addi	sp,sp,-32
    80001f28:	00113c23          	sd	ra,24(sp)
    80001f2c:	00813823          	sd	s0,16(sp)
    80001f30:	00913423          	sd	s1,8(sp)
    80001f34:	02010413          	addi	s0,sp,32
    80001f38:	00050493          	mv	s1,a0
    80001f3c:	0000b797          	auipc	a5,0xb
    80001f40:	cac78793          	addi	a5,a5,-852 # 8000cbe8 <_ZTV7WorkerC+0x10>
    80001f44:	00f53023          	sd	a5,0(a0)
    80001f48:	00005097          	auipc	ra,0x5
    80001f4c:	994080e7          	jalr	-1644(ra) # 800068dc <_ZN6ThreadD1Ev>
    80001f50:	00048513          	mv	a0,s1
    80001f54:	00005097          	auipc	ra,0x5
    80001f58:	a2c080e7          	jalr	-1492(ra) # 80006980 <_ZdlPv>
    80001f5c:	01813083          	ld	ra,24(sp)
    80001f60:	01013403          	ld	s0,16(sp)
    80001f64:	00813483          	ld	s1,8(sp)
    80001f68:	02010113          	addi	sp,sp,32
    80001f6c:	00008067          	ret

0000000080001f70 <_ZN7WorkerDD1Ev>:
class WorkerD: public Thread {
    80001f70:	ff010113          	addi	sp,sp,-16
    80001f74:	00113423          	sd	ra,8(sp)
    80001f78:	00813023          	sd	s0,0(sp)
    80001f7c:	01010413          	addi	s0,sp,16
    80001f80:	0000b797          	auipc	a5,0xb
    80001f84:	c9078793          	addi	a5,a5,-880 # 8000cc10 <_ZTV7WorkerD+0x10>
    80001f88:	00f53023          	sd	a5,0(a0)
    80001f8c:	00005097          	auipc	ra,0x5
    80001f90:	950080e7          	jalr	-1712(ra) # 800068dc <_ZN6ThreadD1Ev>
    80001f94:	00813083          	ld	ra,8(sp)
    80001f98:	00013403          	ld	s0,0(sp)
    80001f9c:	01010113          	addi	sp,sp,16
    80001fa0:	00008067          	ret

0000000080001fa4 <_ZN7WorkerDD0Ev>:
    80001fa4:	fe010113          	addi	sp,sp,-32
    80001fa8:	00113c23          	sd	ra,24(sp)
    80001fac:	00813823          	sd	s0,16(sp)
    80001fb0:	00913423          	sd	s1,8(sp)
    80001fb4:	02010413          	addi	s0,sp,32
    80001fb8:	00050493          	mv	s1,a0
    80001fbc:	0000b797          	auipc	a5,0xb
    80001fc0:	c5478793          	addi	a5,a5,-940 # 8000cc10 <_ZTV7WorkerD+0x10>
    80001fc4:	00f53023          	sd	a5,0(a0)
    80001fc8:	00005097          	auipc	ra,0x5
    80001fcc:	914080e7          	jalr	-1772(ra) # 800068dc <_ZN6ThreadD1Ev>
    80001fd0:	00048513          	mv	a0,s1
    80001fd4:	00005097          	auipc	ra,0x5
    80001fd8:	9ac080e7          	jalr	-1620(ra) # 80006980 <_ZdlPv>
    80001fdc:	01813083          	ld	ra,24(sp)
    80001fe0:	01013403          	ld	s0,16(sp)
    80001fe4:	00813483          	ld	s1,8(sp)
    80001fe8:	02010113          	addi	sp,sp,32
    80001fec:	00008067          	ret

0000000080001ff0 <_ZN7WorkerA3runEv>:
    void run() override {
    80001ff0:	ff010113          	addi	sp,sp,-16
    80001ff4:	00113423          	sd	ra,8(sp)
    80001ff8:	00813023          	sd	s0,0(sp)
    80001ffc:	01010413          	addi	s0,sp,16
        workerBodyA(nullptr);
    80002000:	00000593          	li	a1,0
    80002004:	fffff097          	auipc	ra,0xfffff
    80002008:	774080e7          	jalr	1908(ra) # 80001778 <_ZN7WorkerA11workerBodyAEPv>
    }
    8000200c:	00813083          	ld	ra,8(sp)
    80002010:	00013403          	ld	s0,0(sp)
    80002014:	01010113          	addi	sp,sp,16
    80002018:	00008067          	ret

000000008000201c <_ZN7WorkerB3runEv>:
    void run() override {
    8000201c:	ff010113          	addi	sp,sp,-16
    80002020:	00113423          	sd	ra,8(sp)
    80002024:	00813023          	sd	s0,0(sp)
    80002028:	01010413          	addi	s0,sp,16
        workerBodyB(nullptr);
    8000202c:	00000593          	li	a1,0
    80002030:	00000097          	auipc	ra,0x0
    80002034:	814080e7          	jalr	-2028(ra) # 80001844 <_ZN7WorkerB11workerBodyBEPv>
    }
    80002038:	00813083          	ld	ra,8(sp)
    8000203c:	00013403          	ld	s0,0(sp)
    80002040:	01010113          	addi	sp,sp,16
    80002044:	00008067          	ret

0000000080002048 <_ZN7WorkerC3runEv>:
    void run() override {
    80002048:	ff010113          	addi	sp,sp,-16
    8000204c:	00113423          	sd	ra,8(sp)
    80002050:	00813023          	sd	s0,0(sp)
    80002054:	01010413          	addi	s0,sp,16
        workerBodyC(nullptr);
    80002058:	00000593          	li	a1,0
    8000205c:	00000097          	auipc	ra,0x0
    80002060:	8bc080e7          	jalr	-1860(ra) # 80001918 <_ZN7WorkerC11workerBodyCEPv>
    }
    80002064:	00813083          	ld	ra,8(sp)
    80002068:	00013403          	ld	s0,0(sp)
    8000206c:	01010113          	addi	sp,sp,16
    80002070:	00008067          	ret

0000000080002074 <_ZN7WorkerD3runEv>:
    void run() override {
    80002074:	ff010113          	addi	sp,sp,-16
    80002078:	00113423          	sd	ra,8(sp)
    8000207c:	00813023          	sd	s0,0(sp)
    80002080:	01010413          	addi	s0,sp,16
        workerBodyD(nullptr);
    80002084:	00000593          	li	a1,0
    80002088:	00000097          	auipc	ra,0x0
    8000208c:	a10080e7          	jalr	-1520(ra) # 80001a98 <_ZN7WorkerD11workerBodyDEPv>
    }
    80002090:	00813083          	ld	ra,8(sp)
    80002094:	00013403          	ld	s0,0(sp)
    80002098:	01010113          	addi	sp,sp,16
    8000209c:	00008067          	ret

00000000800020a0 <_Z20testConsumerProducerv>:

        td->sem->signal();
    }
};

void testConsumerProducer() {
    800020a0:	f8010113          	addi	sp,sp,-128
    800020a4:	06113c23          	sd	ra,120(sp)
    800020a8:	06813823          	sd	s0,112(sp)
    800020ac:	06913423          	sd	s1,104(sp)
    800020b0:	07213023          	sd	s2,96(sp)
    800020b4:	05313c23          	sd	s3,88(sp)
    800020b8:	05413823          	sd	s4,80(sp)
    800020bc:	05513423          	sd	s5,72(sp)
    800020c0:	05613023          	sd	s6,64(sp)
    800020c4:	03713c23          	sd	s7,56(sp)
    800020c8:	03813823          	sd	s8,48(sp)
    800020cc:	03913423          	sd	s9,40(sp)
    800020d0:	08010413          	addi	s0,sp,128
    delete waitForAll;
    for (int i = 0; i < threadNum; i++) {
        delete producers[i];
    }
    delete consumer;
    delete buffer;
    800020d4:	00010c13          	mv	s8,sp
    printString("Unesite broj proizvodjaca?\n");
    800020d8:	00008517          	auipc	a0,0x8
    800020dc:	f4850513          	addi	a0,a0,-184 # 8000a020 <CONSOLE_STATUS+0x10>
    800020e0:	00001097          	auipc	ra,0x1
    800020e4:	5a8080e7          	jalr	1448(ra) # 80003688 <_Z11printStringPKc>
    getString(input, 30);
    800020e8:	01e00593          	li	a1,30
    800020ec:	f8040493          	addi	s1,s0,-128
    800020f0:	00048513          	mv	a0,s1
    800020f4:	00001097          	auipc	ra,0x1
    800020f8:	61c080e7          	jalr	1564(ra) # 80003710 <_Z9getStringPci>
    threadNum = stringToInt(input);
    800020fc:	00048513          	mv	a0,s1
    80002100:	00001097          	auipc	ra,0x1
    80002104:	6e8080e7          	jalr	1768(ra) # 800037e8 <_Z11stringToIntPKc>
    80002108:	00050993          	mv	s3,a0
    printString("Unesite velicinu bafera?\n");
    8000210c:	00008517          	auipc	a0,0x8
    80002110:	f3450513          	addi	a0,a0,-204 # 8000a040 <CONSOLE_STATUS+0x30>
    80002114:	00001097          	auipc	ra,0x1
    80002118:	574080e7          	jalr	1396(ra) # 80003688 <_Z11printStringPKc>
    getString(input, 30);
    8000211c:	01e00593          	li	a1,30
    80002120:	00048513          	mv	a0,s1
    80002124:	00001097          	auipc	ra,0x1
    80002128:	5ec080e7          	jalr	1516(ra) # 80003710 <_Z9getStringPci>
    n = stringToInt(input);
    8000212c:	00048513          	mv	a0,s1
    80002130:	00001097          	auipc	ra,0x1
    80002134:	6b8080e7          	jalr	1720(ra) # 800037e8 <_Z11stringToIntPKc>
    80002138:	00050493          	mv	s1,a0
    printString("Broj proizvodjaca ");
    8000213c:	00008517          	auipc	a0,0x8
    80002140:	f2450513          	addi	a0,a0,-220 # 8000a060 <CONSOLE_STATUS+0x50>
    80002144:	00001097          	auipc	ra,0x1
    80002148:	544080e7          	jalr	1348(ra) # 80003688 <_Z11printStringPKc>
    printInt(threadNum);
    8000214c:	00000613          	li	a2,0
    80002150:	00a00593          	li	a1,10
    80002154:	00098513          	mv	a0,s3
    80002158:	00001097          	auipc	ra,0x1
    8000215c:	6e0080e7          	jalr	1760(ra) # 80003838 <_Z8printIntiii>
    printString(" i velicina bafera ");
    80002160:	00008517          	auipc	a0,0x8
    80002164:	f1850513          	addi	a0,a0,-232 # 8000a078 <CONSOLE_STATUS+0x68>
    80002168:	00001097          	auipc	ra,0x1
    8000216c:	520080e7          	jalr	1312(ra) # 80003688 <_Z11printStringPKc>
    printInt(n);
    80002170:	00000613          	li	a2,0
    80002174:	00a00593          	li	a1,10
    80002178:	00048513          	mv	a0,s1
    8000217c:	00001097          	auipc	ra,0x1
    80002180:	6bc080e7          	jalr	1724(ra) # 80003838 <_Z8printIntiii>
    printString(".\n");
    80002184:	00008517          	auipc	a0,0x8
    80002188:	52c50513          	addi	a0,a0,1324 # 8000a6b0 <CONSOLE_STATUS+0x6a0>
    8000218c:	00001097          	auipc	ra,0x1
    80002190:	4fc080e7          	jalr	1276(ra) # 80003688 <_Z11printStringPKc>
    if (threadNum > n) {
    80002194:	0334c463          	blt	s1,s3,800021bc <_Z20testConsumerProducerv+0x11c>
    } else if (threadNum < 1) {
    80002198:	03305c63          	blez	s3,800021d0 <_Z20testConsumerProducerv+0x130>
    BufferCPP *buffer = new BufferCPP(n);
    8000219c:	03800513          	li	a0,56
    800021a0:	00004097          	auipc	ra,0x4
    800021a4:	7b8080e7          	jalr	1976(ra) # 80006958 <_Znwm>
    800021a8:	00050a93          	mv	s5,a0
    800021ac:	00048593          	mv	a1,s1
    800021b0:	00001097          	auipc	ra,0x1
    800021b4:	7a8080e7          	jalr	1960(ra) # 80003958 <_ZN9BufferCPPC1Ei>
    800021b8:	0300006f          	j	800021e8 <_Z20testConsumerProducerv+0x148>
        printString("Broj proizvodjaca ne sme biti manji od velicine bafera!\n");
    800021bc:	00008517          	auipc	a0,0x8
    800021c0:	ed450513          	addi	a0,a0,-300 # 8000a090 <CONSOLE_STATUS+0x80>
    800021c4:	00001097          	auipc	ra,0x1
    800021c8:	4c4080e7          	jalr	1220(ra) # 80003688 <_Z11printStringPKc>
        return;
    800021cc:	0140006f          	j	800021e0 <_Z20testConsumerProducerv+0x140>
        printString("Broj proizvodjaca mora biti veci od nula!\n");
    800021d0:	00008517          	auipc	a0,0x8
    800021d4:	f0050513          	addi	a0,a0,-256 # 8000a0d0 <CONSOLE_STATUS+0xc0>
    800021d8:	00001097          	auipc	ra,0x1
    800021dc:	4b0080e7          	jalr	1200(ra) # 80003688 <_Z11printStringPKc>
        return;
    800021e0:	000c0113          	mv	sp,s8
    800021e4:	2140006f          	j	800023f8 <_Z20testConsumerProducerv+0x358>
    waitForAll = new Semaphore(0);
    800021e8:	01000513          	li	a0,16
    800021ec:	00004097          	auipc	ra,0x4
    800021f0:	76c080e7          	jalr	1900(ra) # 80006958 <_Znwm>
    800021f4:	00050913          	mv	s2,a0
    800021f8:	00000593          	li	a1,0
    800021fc:	00005097          	auipc	ra,0x5
    80002200:	918080e7          	jalr	-1768(ra) # 80006b14 <_ZN9SemaphoreC1Ej>
    80002204:	0000b797          	auipc	a5,0xb
    80002208:	cd27b623          	sd	s2,-820(a5) # 8000ced0 <_ZL10waitForAll>
    Thread *producers[threadNum];
    8000220c:	00399793          	slli	a5,s3,0x3
    80002210:	00f78793          	addi	a5,a5,15
    80002214:	ff07f793          	andi	a5,a5,-16
    80002218:	40f10133          	sub	sp,sp,a5
    8000221c:	00010a13          	mv	s4,sp
    thread_data threadData[threadNum + 1];
    80002220:	0019871b          	addiw	a4,s3,1
    80002224:	00171793          	slli	a5,a4,0x1
    80002228:	00e787b3          	add	a5,a5,a4
    8000222c:	00379793          	slli	a5,a5,0x3
    80002230:	00f78793          	addi	a5,a5,15
    80002234:	ff07f793          	andi	a5,a5,-16
    80002238:	40f10133          	sub	sp,sp,a5
    8000223c:	00010b13          	mv	s6,sp
    threadData[threadNum].id = threadNum;
    80002240:	00199493          	slli	s1,s3,0x1
    80002244:	013484b3          	add	s1,s1,s3
    80002248:	00349493          	slli	s1,s1,0x3
    8000224c:	009b04b3          	add	s1,s6,s1
    80002250:	0134a023          	sw	s3,0(s1)
    threadData[threadNum].buffer = buffer;
    80002254:	0154b423          	sd	s5,8(s1)
    threadData[threadNum].sem = waitForAll;
    80002258:	0124b823          	sd	s2,16(s1)
    Thread *consumer = new Consumer(&threadData[threadNum]);
    8000225c:	02800513          	li	a0,40
    80002260:	00004097          	auipc	ra,0x4
    80002264:	6f8080e7          	jalr	1784(ra) # 80006958 <_Znwm>
    80002268:	00050b93          	mv	s7,a0
    Consumer(thread_data *_td) : Thread(), td(_td) {}
    8000226c:	00005097          	auipc	ra,0x5
    80002270:	878080e7          	jalr	-1928(ra) # 80006ae4 <_ZN6ThreadC1Ev>
    80002274:	0000b797          	auipc	a5,0xb
    80002278:	a1478793          	addi	a5,a5,-1516 # 8000cc88 <_ZTV8Consumer+0x10>
    8000227c:	00fbb023          	sd	a5,0(s7)
    80002280:	029bb023          	sd	s1,32(s7)
    consumer->start();
    80002284:	000b8513          	mv	a0,s7
    80002288:	00004097          	auipc	ra,0x4
    8000228c:	7b8080e7          	jalr	1976(ra) # 80006a40 <_ZN6Thread5startEv>
    threadData[0].id = 0;
    80002290:	000b2023          	sw	zero,0(s6)
    threadData[0].buffer = buffer;
    80002294:	015b3423          	sd	s5,8(s6)
    threadData[0].sem = waitForAll;
    80002298:	0000b797          	auipc	a5,0xb
    8000229c:	c387b783          	ld	a5,-968(a5) # 8000ced0 <_ZL10waitForAll>
    800022a0:	00fb3823          	sd	a5,16(s6)
    producers[0] = new ProducerKeyborad(&threadData[0]);
    800022a4:	02800513          	li	a0,40
    800022a8:	00004097          	auipc	ra,0x4
    800022ac:	6b0080e7          	jalr	1712(ra) # 80006958 <_Znwm>
    800022b0:	00050493          	mv	s1,a0
    ProducerKeyborad(thread_data *_td) : Thread(), td(_td) {}
    800022b4:	00005097          	auipc	ra,0x5
    800022b8:	830080e7          	jalr	-2000(ra) # 80006ae4 <_ZN6ThreadC1Ev>
    800022bc:	0000b797          	auipc	a5,0xb
    800022c0:	97c78793          	addi	a5,a5,-1668 # 8000cc38 <_ZTV16ProducerKeyborad+0x10>
    800022c4:	00f4b023          	sd	a5,0(s1)
    800022c8:	0364b023          	sd	s6,32(s1)
    producers[0] = new ProducerKeyborad(&threadData[0]);
    800022cc:	009a3023          	sd	s1,0(s4)
    producers[0]->start();
    800022d0:	00048513          	mv	a0,s1
    800022d4:	00004097          	auipc	ra,0x4
    800022d8:	76c080e7          	jalr	1900(ra) # 80006a40 <_ZN6Thread5startEv>
    for (int i = 1; i < threadNum; i++) {
    800022dc:	00100913          	li	s2,1
    800022e0:	0300006f          	j	80002310 <_Z20testConsumerProducerv+0x270>
    Producer(thread_data *_td) : Thread(), td(_td) {}
    800022e4:	0000b797          	auipc	a5,0xb
    800022e8:	97c78793          	addi	a5,a5,-1668 # 8000cc60 <_ZTV8Producer+0x10>
    800022ec:	00fcb023          	sd	a5,0(s9)
    800022f0:	029cb023          	sd	s1,32(s9)
        producers[i] = new Producer(&threadData[i]);
    800022f4:	00391793          	slli	a5,s2,0x3
    800022f8:	00fa07b3          	add	a5,s4,a5
    800022fc:	0197b023          	sd	s9,0(a5)
        producers[i]->start();
    80002300:	000c8513          	mv	a0,s9
    80002304:	00004097          	auipc	ra,0x4
    80002308:	73c080e7          	jalr	1852(ra) # 80006a40 <_ZN6Thread5startEv>
    for (int i = 1; i < threadNum; i++) {
    8000230c:	0019091b          	addiw	s2,s2,1
    80002310:	05395263          	bge	s2,s3,80002354 <_Z20testConsumerProducerv+0x2b4>
        threadData[i].id = i;
    80002314:	00191493          	slli	s1,s2,0x1
    80002318:	012484b3          	add	s1,s1,s2
    8000231c:	00349493          	slli	s1,s1,0x3
    80002320:	009b04b3          	add	s1,s6,s1
    80002324:	0124a023          	sw	s2,0(s1)
        threadData[i].buffer = buffer;
    80002328:	0154b423          	sd	s5,8(s1)
        threadData[i].sem = waitForAll;
    8000232c:	0000b797          	auipc	a5,0xb
    80002330:	ba47b783          	ld	a5,-1116(a5) # 8000ced0 <_ZL10waitForAll>
    80002334:	00f4b823          	sd	a5,16(s1)
        producers[i] = new Producer(&threadData[i]);
    80002338:	02800513          	li	a0,40
    8000233c:	00004097          	auipc	ra,0x4
    80002340:	61c080e7          	jalr	1564(ra) # 80006958 <_Znwm>
    80002344:	00050c93          	mv	s9,a0
    Producer(thread_data *_td) : Thread(), td(_td) {}
    80002348:	00004097          	auipc	ra,0x4
    8000234c:	79c080e7          	jalr	1948(ra) # 80006ae4 <_ZN6ThreadC1Ev>
    80002350:	f95ff06f          	j	800022e4 <_Z20testConsumerProducerv+0x244>
    Thread::dispatch();
    80002354:	00004097          	auipc	ra,0x4
    80002358:	740080e7          	jalr	1856(ra) # 80006a94 <_ZN6Thread8dispatchEv>
    for (int i = 0; i <= threadNum; i++) {
    8000235c:	00000493          	li	s1,0
    80002360:	0099ce63          	blt	s3,s1,8000237c <_Z20testConsumerProducerv+0x2dc>
        waitForAll->wait();
    80002364:	0000b517          	auipc	a0,0xb
    80002368:	b6c53503          	ld	a0,-1172(a0) # 8000ced0 <_ZL10waitForAll>
    8000236c:	00004097          	auipc	ra,0x4
    80002370:	7e4080e7          	jalr	2020(ra) # 80006b50 <_ZN9Semaphore4waitEv>
    for (int i = 0; i <= threadNum; i++) {
    80002374:	0014849b          	addiw	s1,s1,1
    80002378:	fe9ff06f          	j	80002360 <_Z20testConsumerProducerv+0x2c0>
    delete waitForAll;
    8000237c:	0000b517          	auipc	a0,0xb
    80002380:	b5453503          	ld	a0,-1196(a0) # 8000ced0 <_ZL10waitForAll>
    80002384:	00050863          	beqz	a0,80002394 <_Z20testConsumerProducerv+0x2f4>
    80002388:	00053783          	ld	a5,0(a0)
    8000238c:	0087b783          	ld	a5,8(a5)
    80002390:	000780e7          	jalr	a5
    for (int i = 0; i <= threadNum; i++) {
    80002394:	00000493          	li	s1,0
    80002398:	0080006f          	j	800023a0 <_Z20testConsumerProducerv+0x300>
    for (int i = 0; i < threadNum; i++) {
    8000239c:	0014849b          	addiw	s1,s1,1
    800023a0:	0334d263          	bge	s1,s3,800023c4 <_Z20testConsumerProducerv+0x324>
        delete producers[i];
    800023a4:	00349793          	slli	a5,s1,0x3
    800023a8:	00fa07b3          	add	a5,s4,a5
    800023ac:	0007b503          	ld	a0,0(a5)
    800023b0:	fe0506e3          	beqz	a0,8000239c <_Z20testConsumerProducerv+0x2fc>
    800023b4:	00053783          	ld	a5,0(a0)
    800023b8:	0087b783          	ld	a5,8(a5)
    800023bc:	000780e7          	jalr	a5
    800023c0:	fddff06f          	j	8000239c <_Z20testConsumerProducerv+0x2fc>
    delete consumer;
    800023c4:	000b8a63          	beqz	s7,800023d8 <_Z20testConsumerProducerv+0x338>
    800023c8:	000bb783          	ld	a5,0(s7)
    800023cc:	0087b783          	ld	a5,8(a5)
    800023d0:	000b8513          	mv	a0,s7
    800023d4:	000780e7          	jalr	a5
    delete buffer;
    800023d8:	000a8e63          	beqz	s5,800023f4 <_Z20testConsumerProducerv+0x354>
    800023dc:	000a8513          	mv	a0,s5
    800023e0:	00002097          	auipc	ra,0x2
    800023e4:	870080e7          	jalr	-1936(ra) # 80003c50 <_ZN9BufferCPPD1Ev>
    800023e8:	000a8513          	mv	a0,s5
    800023ec:	00004097          	auipc	ra,0x4
    800023f0:	594080e7          	jalr	1428(ra) # 80006980 <_ZdlPv>
    800023f4:	000c0113          	mv	sp,s8
}
    800023f8:	f8040113          	addi	sp,s0,-128
    800023fc:	07813083          	ld	ra,120(sp)
    80002400:	07013403          	ld	s0,112(sp)
    80002404:	06813483          	ld	s1,104(sp)
    80002408:	06013903          	ld	s2,96(sp)
    8000240c:	05813983          	ld	s3,88(sp)
    80002410:	05013a03          	ld	s4,80(sp)
    80002414:	04813a83          	ld	s5,72(sp)
    80002418:	04013b03          	ld	s6,64(sp)
    8000241c:	03813b83          	ld	s7,56(sp)
    80002420:	03013c03          	ld	s8,48(sp)
    80002424:	02813c83          	ld	s9,40(sp)
    80002428:	08010113          	addi	sp,sp,128
    8000242c:	00008067          	ret
    80002430:	00050493          	mv	s1,a0
    BufferCPP *buffer = new BufferCPP(n);
    80002434:	000a8513          	mv	a0,s5
    80002438:	00004097          	auipc	ra,0x4
    8000243c:	548080e7          	jalr	1352(ra) # 80006980 <_ZdlPv>
    80002440:	00048513          	mv	a0,s1
    80002444:	0000c097          	auipc	ra,0xc
    80002448:	c04080e7          	jalr	-1020(ra) # 8000e048 <_Unwind_Resume>
    8000244c:	00050493          	mv	s1,a0
    waitForAll = new Semaphore(0);
    80002450:	00090513          	mv	a0,s2
    80002454:	00004097          	auipc	ra,0x4
    80002458:	52c080e7          	jalr	1324(ra) # 80006980 <_ZdlPv>
    8000245c:	00048513          	mv	a0,s1
    80002460:	0000c097          	auipc	ra,0xc
    80002464:	be8080e7          	jalr	-1048(ra) # 8000e048 <_Unwind_Resume>
    80002468:	00050493          	mv	s1,a0
    Thread *consumer = new Consumer(&threadData[threadNum]);
    8000246c:	000b8513          	mv	a0,s7
    80002470:	00004097          	auipc	ra,0x4
    80002474:	510080e7          	jalr	1296(ra) # 80006980 <_ZdlPv>
    80002478:	00048513          	mv	a0,s1
    8000247c:	0000c097          	auipc	ra,0xc
    80002480:	bcc080e7          	jalr	-1076(ra) # 8000e048 <_Unwind_Resume>
    80002484:	00050913          	mv	s2,a0
    producers[0] = new ProducerKeyborad(&threadData[0]);
    80002488:	00048513          	mv	a0,s1
    8000248c:	00004097          	auipc	ra,0x4
    80002490:	4f4080e7          	jalr	1268(ra) # 80006980 <_ZdlPv>
    80002494:	00090513          	mv	a0,s2
    80002498:	0000c097          	auipc	ra,0xc
    8000249c:	bb0080e7          	jalr	-1104(ra) # 8000e048 <_Unwind_Resume>
    800024a0:	00050493          	mv	s1,a0
        producers[i] = new Producer(&threadData[i]);
    800024a4:	000c8513          	mv	a0,s9
    800024a8:	00004097          	auipc	ra,0x4
    800024ac:	4d8080e7          	jalr	1240(ra) # 80006980 <_ZdlPv>
    800024b0:	00048513          	mv	a0,s1
    800024b4:	0000c097          	auipc	ra,0xc
    800024b8:	b94080e7          	jalr	-1132(ra) # 8000e048 <_Unwind_Resume>

00000000800024bc <_ZN8Consumer3runEv>:
    void run() override {
    800024bc:	fd010113          	addi	sp,sp,-48
    800024c0:	02113423          	sd	ra,40(sp)
    800024c4:	02813023          	sd	s0,32(sp)
    800024c8:	00913c23          	sd	s1,24(sp)
    800024cc:	01213823          	sd	s2,16(sp)
    800024d0:	01313423          	sd	s3,8(sp)
    800024d4:	03010413          	addi	s0,sp,48
    800024d8:	00050913          	mv	s2,a0
        int i = 0;
    800024dc:	00000993          	li	s3,0
    800024e0:	0100006f          	j	800024f0 <_ZN8Consumer3runEv+0x34>
                Console::putc('\n');
    800024e4:	00a00513          	li	a0,10
    800024e8:	00004097          	auipc	ra,0x4
    800024ec:	790080e7          	jalr	1936(ra) # 80006c78 <_ZN7Console4putcEc>
        while (!threadEnd) {
    800024f0:	0000b797          	auipc	a5,0xb
    800024f4:	9d87a783          	lw	a5,-1576(a5) # 8000cec8 <_ZL9threadEnd>
    800024f8:	04079a63          	bnez	a5,8000254c <_ZN8Consumer3runEv+0x90>
            int key = td->buffer->get();
    800024fc:	02093783          	ld	a5,32(s2)
    80002500:	0087b503          	ld	a0,8(a5)
    80002504:	00001097          	auipc	ra,0x1
    80002508:	638080e7          	jalr	1592(ra) # 80003b3c <_ZN9BufferCPP3getEv>
            i++;
    8000250c:	0019849b          	addiw	s1,s3,1
    80002510:	0004899b          	sext.w	s3,s1
            Console::putc(key);
    80002514:	0ff57513          	andi	a0,a0,255
    80002518:	00004097          	auipc	ra,0x4
    8000251c:	760080e7          	jalr	1888(ra) # 80006c78 <_ZN7Console4putcEc>
            if (i % 80 == 0) {
    80002520:	05000793          	li	a5,80
    80002524:	02f4e4bb          	remw	s1,s1,a5
    80002528:	fc0494e3          	bnez	s1,800024f0 <_ZN8Consumer3runEv+0x34>
    8000252c:	fb9ff06f          	j	800024e4 <_ZN8Consumer3runEv+0x28>
            int key = td->buffer->get();
    80002530:	02093783          	ld	a5,32(s2)
    80002534:	0087b503          	ld	a0,8(a5)
    80002538:	00001097          	auipc	ra,0x1
    8000253c:	604080e7          	jalr	1540(ra) # 80003b3c <_ZN9BufferCPP3getEv>
            Console::putc(key);
    80002540:	0ff57513          	andi	a0,a0,255
    80002544:	00004097          	auipc	ra,0x4
    80002548:	734080e7          	jalr	1844(ra) # 80006c78 <_ZN7Console4putcEc>
        while (td->buffer->getCnt() > 0) {
    8000254c:	02093783          	ld	a5,32(s2)
    80002550:	0087b503          	ld	a0,8(a5)
    80002554:	00001097          	auipc	ra,0x1
    80002558:	674080e7          	jalr	1652(ra) # 80003bc8 <_ZN9BufferCPP6getCntEv>
    8000255c:	fca04ae3          	bgtz	a0,80002530 <_ZN8Consumer3runEv+0x74>
        td->sem->signal();
    80002560:	02093783          	ld	a5,32(s2)
    80002564:	0107b503          	ld	a0,16(a5)
    80002568:	00004097          	auipc	ra,0x4
    8000256c:	614080e7          	jalr	1556(ra) # 80006b7c <_ZN9Semaphore6signalEv>
    }
    80002570:	02813083          	ld	ra,40(sp)
    80002574:	02013403          	ld	s0,32(sp)
    80002578:	01813483          	ld	s1,24(sp)
    8000257c:	01013903          	ld	s2,16(sp)
    80002580:	00813983          	ld	s3,8(sp)
    80002584:	03010113          	addi	sp,sp,48
    80002588:	00008067          	ret

000000008000258c <_ZN8ConsumerD1Ev>:
class Consumer : public Thread {
    8000258c:	ff010113          	addi	sp,sp,-16
    80002590:	00113423          	sd	ra,8(sp)
    80002594:	00813023          	sd	s0,0(sp)
    80002598:	01010413          	addi	s0,sp,16
    8000259c:	0000a797          	auipc	a5,0xa
    800025a0:	6ec78793          	addi	a5,a5,1772 # 8000cc88 <_ZTV8Consumer+0x10>
    800025a4:	00f53023          	sd	a5,0(a0)
    800025a8:	00004097          	auipc	ra,0x4
    800025ac:	334080e7          	jalr	820(ra) # 800068dc <_ZN6ThreadD1Ev>
    800025b0:	00813083          	ld	ra,8(sp)
    800025b4:	00013403          	ld	s0,0(sp)
    800025b8:	01010113          	addi	sp,sp,16
    800025bc:	00008067          	ret

00000000800025c0 <_ZN8ConsumerD0Ev>:
    800025c0:	fe010113          	addi	sp,sp,-32
    800025c4:	00113c23          	sd	ra,24(sp)
    800025c8:	00813823          	sd	s0,16(sp)
    800025cc:	00913423          	sd	s1,8(sp)
    800025d0:	02010413          	addi	s0,sp,32
    800025d4:	00050493          	mv	s1,a0
    800025d8:	0000a797          	auipc	a5,0xa
    800025dc:	6b078793          	addi	a5,a5,1712 # 8000cc88 <_ZTV8Consumer+0x10>
    800025e0:	00f53023          	sd	a5,0(a0)
    800025e4:	00004097          	auipc	ra,0x4
    800025e8:	2f8080e7          	jalr	760(ra) # 800068dc <_ZN6ThreadD1Ev>
    800025ec:	00048513          	mv	a0,s1
    800025f0:	00004097          	auipc	ra,0x4
    800025f4:	390080e7          	jalr	912(ra) # 80006980 <_ZdlPv>
    800025f8:	01813083          	ld	ra,24(sp)
    800025fc:	01013403          	ld	s0,16(sp)
    80002600:	00813483          	ld	s1,8(sp)
    80002604:	02010113          	addi	sp,sp,32
    80002608:	00008067          	ret

000000008000260c <_ZN16ProducerKeyboradD1Ev>:
class ProducerKeyborad : public Thread {
    8000260c:	ff010113          	addi	sp,sp,-16
    80002610:	00113423          	sd	ra,8(sp)
    80002614:	00813023          	sd	s0,0(sp)
    80002618:	01010413          	addi	s0,sp,16
    8000261c:	0000a797          	auipc	a5,0xa
    80002620:	61c78793          	addi	a5,a5,1564 # 8000cc38 <_ZTV16ProducerKeyborad+0x10>
    80002624:	00f53023          	sd	a5,0(a0)
    80002628:	00004097          	auipc	ra,0x4
    8000262c:	2b4080e7          	jalr	692(ra) # 800068dc <_ZN6ThreadD1Ev>
    80002630:	00813083          	ld	ra,8(sp)
    80002634:	00013403          	ld	s0,0(sp)
    80002638:	01010113          	addi	sp,sp,16
    8000263c:	00008067          	ret

0000000080002640 <_ZN16ProducerKeyboradD0Ev>:
    80002640:	fe010113          	addi	sp,sp,-32
    80002644:	00113c23          	sd	ra,24(sp)
    80002648:	00813823          	sd	s0,16(sp)
    8000264c:	00913423          	sd	s1,8(sp)
    80002650:	02010413          	addi	s0,sp,32
    80002654:	00050493          	mv	s1,a0
    80002658:	0000a797          	auipc	a5,0xa
    8000265c:	5e078793          	addi	a5,a5,1504 # 8000cc38 <_ZTV16ProducerKeyborad+0x10>
    80002660:	00f53023          	sd	a5,0(a0)
    80002664:	00004097          	auipc	ra,0x4
    80002668:	278080e7          	jalr	632(ra) # 800068dc <_ZN6ThreadD1Ev>
    8000266c:	00048513          	mv	a0,s1
    80002670:	00004097          	auipc	ra,0x4
    80002674:	310080e7          	jalr	784(ra) # 80006980 <_ZdlPv>
    80002678:	01813083          	ld	ra,24(sp)
    8000267c:	01013403          	ld	s0,16(sp)
    80002680:	00813483          	ld	s1,8(sp)
    80002684:	02010113          	addi	sp,sp,32
    80002688:	00008067          	ret

000000008000268c <_ZN8ProducerD1Ev>:
class Producer : public Thread {
    8000268c:	ff010113          	addi	sp,sp,-16
    80002690:	00113423          	sd	ra,8(sp)
    80002694:	00813023          	sd	s0,0(sp)
    80002698:	01010413          	addi	s0,sp,16
    8000269c:	0000a797          	auipc	a5,0xa
    800026a0:	5c478793          	addi	a5,a5,1476 # 8000cc60 <_ZTV8Producer+0x10>
    800026a4:	00f53023          	sd	a5,0(a0)
    800026a8:	00004097          	auipc	ra,0x4
    800026ac:	234080e7          	jalr	564(ra) # 800068dc <_ZN6ThreadD1Ev>
    800026b0:	00813083          	ld	ra,8(sp)
    800026b4:	00013403          	ld	s0,0(sp)
    800026b8:	01010113          	addi	sp,sp,16
    800026bc:	00008067          	ret

00000000800026c0 <_ZN8ProducerD0Ev>:
    800026c0:	fe010113          	addi	sp,sp,-32
    800026c4:	00113c23          	sd	ra,24(sp)
    800026c8:	00813823          	sd	s0,16(sp)
    800026cc:	00913423          	sd	s1,8(sp)
    800026d0:	02010413          	addi	s0,sp,32
    800026d4:	00050493          	mv	s1,a0
    800026d8:	0000a797          	auipc	a5,0xa
    800026dc:	58878793          	addi	a5,a5,1416 # 8000cc60 <_ZTV8Producer+0x10>
    800026e0:	00f53023          	sd	a5,0(a0)
    800026e4:	00004097          	auipc	ra,0x4
    800026e8:	1f8080e7          	jalr	504(ra) # 800068dc <_ZN6ThreadD1Ev>
    800026ec:	00048513          	mv	a0,s1
    800026f0:	00004097          	auipc	ra,0x4
    800026f4:	290080e7          	jalr	656(ra) # 80006980 <_ZdlPv>
    800026f8:	01813083          	ld	ra,24(sp)
    800026fc:	01013403          	ld	s0,16(sp)
    80002700:	00813483          	ld	s1,8(sp)
    80002704:	02010113          	addi	sp,sp,32
    80002708:	00008067          	ret

000000008000270c <_ZN16ProducerKeyborad3runEv>:
    void run() override {
    8000270c:	fe010113          	addi	sp,sp,-32
    80002710:	00113c23          	sd	ra,24(sp)
    80002714:	00813823          	sd	s0,16(sp)
    80002718:	00913423          	sd	s1,8(sp)
    8000271c:	02010413          	addi	s0,sp,32
    80002720:	00050493          	mv	s1,a0
        while ((key = getc()) != 0x1b) {
    80002724:	00002097          	auipc	ra,0x2
    80002728:	540080e7          	jalr	1344(ra) # 80004c64 <getc>
    8000272c:	0005059b          	sext.w	a1,a0
    80002730:	01b00793          	li	a5,27
    80002734:	00f58c63          	beq	a1,a5,8000274c <_ZN16ProducerKeyborad3runEv+0x40>
            td->buffer->put(key);
    80002738:	0204b783          	ld	a5,32(s1)
    8000273c:	0087b503          	ld	a0,8(a5)
    80002740:	00001097          	auipc	ra,0x1
    80002744:	36c080e7          	jalr	876(ra) # 80003aac <_ZN9BufferCPP3putEi>
        while ((key = getc()) != 0x1b) {
    80002748:	fddff06f          	j	80002724 <_ZN16ProducerKeyborad3runEv+0x18>
        threadEnd = 1;
    8000274c:	00100793          	li	a5,1
    80002750:	0000a717          	auipc	a4,0xa
    80002754:	76f72c23          	sw	a5,1912(a4) # 8000cec8 <_ZL9threadEnd>
        td->buffer->put('!');
    80002758:	0204b783          	ld	a5,32(s1)
    8000275c:	02100593          	li	a1,33
    80002760:	0087b503          	ld	a0,8(a5)
    80002764:	00001097          	auipc	ra,0x1
    80002768:	348080e7          	jalr	840(ra) # 80003aac <_ZN9BufferCPP3putEi>
        td->sem->signal();
    8000276c:	0204b783          	ld	a5,32(s1)
    80002770:	0107b503          	ld	a0,16(a5)
    80002774:	00004097          	auipc	ra,0x4
    80002778:	408080e7          	jalr	1032(ra) # 80006b7c <_ZN9Semaphore6signalEv>
    }
    8000277c:	01813083          	ld	ra,24(sp)
    80002780:	01013403          	ld	s0,16(sp)
    80002784:	00813483          	ld	s1,8(sp)
    80002788:	02010113          	addi	sp,sp,32
    8000278c:	00008067          	ret

0000000080002790 <_ZN8Producer3runEv>:
    void run() override {
    80002790:	fe010113          	addi	sp,sp,-32
    80002794:	00113c23          	sd	ra,24(sp)
    80002798:	00813823          	sd	s0,16(sp)
    8000279c:	00913423          	sd	s1,8(sp)
    800027a0:	01213023          	sd	s2,0(sp)
    800027a4:	02010413          	addi	s0,sp,32
    800027a8:	00050493          	mv	s1,a0
        int i = 0;
    800027ac:	00000913          	li	s2,0
        while (!threadEnd) {
    800027b0:	0000a797          	auipc	a5,0xa
    800027b4:	7187a783          	lw	a5,1816(a5) # 8000cec8 <_ZL9threadEnd>
    800027b8:	04079263          	bnez	a5,800027fc <_ZN8Producer3runEv+0x6c>
            td->buffer->put(td->id + '0');
    800027bc:	0204b783          	ld	a5,32(s1)
    800027c0:	0007a583          	lw	a1,0(a5)
    800027c4:	0305859b          	addiw	a1,a1,48
    800027c8:	0087b503          	ld	a0,8(a5)
    800027cc:	00001097          	auipc	ra,0x1
    800027d0:	2e0080e7          	jalr	736(ra) # 80003aac <_ZN9BufferCPP3putEi>
            i++;
    800027d4:	0019071b          	addiw	a4,s2,1
    800027d8:	0007091b          	sext.w	s2,a4
            Thread::sleep((i + td->id) % 5);
    800027dc:	0204b783          	ld	a5,32(s1)
    800027e0:	0007a783          	lw	a5,0(a5)
    800027e4:	00e787bb          	addw	a5,a5,a4
    800027e8:	00500513          	li	a0,5
    800027ec:	02a7e53b          	remw	a0,a5,a0
    800027f0:	00004097          	auipc	ra,0x4
    800027f4:	2cc080e7          	jalr	716(ra) # 80006abc <_ZN6Thread5sleepEm>
        while (!threadEnd) {
    800027f8:	fb9ff06f          	j	800027b0 <_ZN8Producer3runEv+0x20>
        td->sem->signal();
    800027fc:	0204b783          	ld	a5,32(s1)
    80002800:	0107b503          	ld	a0,16(a5)
    80002804:	00004097          	auipc	ra,0x4
    80002808:	378080e7          	jalr	888(ra) # 80006b7c <_ZN9Semaphore6signalEv>
    }
    8000280c:	01813083          	ld	ra,24(sp)
    80002810:	01013403          	ld	s0,16(sp)
    80002814:	00813483          	ld	s1,8(sp)
    80002818:	00013903          	ld	s2,0(sp)
    8000281c:	02010113          	addi	sp,sp,32
    80002820:	00008067          	ret

0000000080002824 <_ZL9fibonaccim>:
static volatile bool finishedA = false;
static volatile bool finishedB = false;
static volatile bool finishedC = false;
static volatile bool finishedD = false;

static uint64 fibonacci(uint64 n) {
    80002824:	fe010113          	addi	sp,sp,-32
    80002828:	00113c23          	sd	ra,24(sp)
    8000282c:	00813823          	sd	s0,16(sp)
    80002830:	00913423          	sd	s1,8(sp)
    80002834:	01213023          	sd	s2,0(sp)
    80002838:	02010413          	addi	s0,sp,32
    8000283c:	00050493          	mv	s1,a0
    if (n == 0 || n == 1) { return n; }
    80002840:	00100793          	li	a5,1
    80002844:	02a7f863          	bgeu	a5,a0,80002874 <_ZL9fibonaccim+0x50>
    if (n % 10 == 0) { thread_dispatch(); }
    80002848:	00a00793          	li	a5,10
    8000284c:	02f577b3          	remu	a5,a0,a5
    80002850:	02078e63          	beqz	a5,8000288c <_ZL9fibonaccim+0x68>
    return fibonacci(n - 1) + fibonacci(n - 2);
    80002854:	fff48513          	addi	a0,s1,-1
    80002858:	00000097          	auipc	ra,0x0
    8000285c:	fcc080e7          	jalr	-52(ra) # 80002824 <_ZL9fibonaccim>
    80002860:	00050913          	mv	s2,a0
    80002864:	ffe48513          	addi	a0,s1,-2
    80002868:	00000097          	auipc	ra,0x0
    8000286c:	fbc080e7          	jalr	-68(ra) # 80002824 <_ZL9fibonaccim>
    80002870:	00a90533          	add	a0,s2,a0
}
    80002874:	01813083          	ld	ra,24(sp)
    80002878:	01013403          	ld	s0,16(sp)
    8000287c:	00813483          	ld	s1,8(sp)
    80002880:	00013903          	ld	s2,0(sp)
    80002884:	02010113          	addi	sp,sp,32
    80002888:	00008067          	ret
    if (n % 10 == 0) { thread_dispatch(); }
    8000288c:	00002097          	auipc	ra,0x2
    80002890:	1c0080e7          	jalr	448(ra) # 80004a4c <thread_dispatch>
    80002894:	fc1ff06f          	j	80002854 <_ZL9fibonaccim+0x30>

0000000080002898 <_ZL11workerBodyDPv>:
    printString("A finished!\n");
    finishedC = true;
    thread_dispatch();
}

static void workerBodyD(void* arg) {
    80002898:	fe010113          	addi	sp,sp,-32
    8000289c:	00113c23          	sd	ra,24(sp)
    800028a0:	00813823          	sd	s0,16(sp)
    800028a4:	00913423          	sd	s1,8(sp)
    800028a8:	01213023          	sd	s2,0(sp)
    800028ac:	02010413          	addi	s0,sp,32
    uint8 i = 10;
    800028b0:	00a00493          	li	s1,10
    800028b4:	0400006f          	j	800028f4 <_ZL11workerBodyDPv+0x5c>
    for (; i < 13; i++) {
        printString("D: i="); printInt(i); printString("\n");
    800028b8:	00008517          	auipc	a0,0x8
    800028bc:	8a850513          	addi	a0,a0,-1880 # 8000a160 <CONSOLE_STATUS+0x150>
    800028c0:	00001097          	auipc	ra,0x1
    800028c4:	dc8080e7          	jalr	-568(ra) # 80003688 <_Z11printStringPKc>
    800028c8:	00000613          	li	a2,0
    800028cc:	00a00593          	li	a1,10
    800028d0:	00048513          	mv	a0,s1
    800028d4:	00001097          	auipc	ra,0x1
    800028d8:	f64080e7          	jalr	-156(ra) # 80003838 <_Z8printIntiii>
    800028dc:	00008517          	auipc	a0,0x8
    800028e0:	a7450513          	addi	a0,a0,-1420 # 8000a350 <CONSOLE_STATUS+0x340>
    800028e4:	00001097          	auipc	ra,0x1
    800028e8:	da4080e7          	jalr	-604(ra) # 80003688 <_Z11printStringPKc>
    for (; i < 13; i++) {
    800028ec:	0014849b          	addiw	s1,s1,1
    800028f0:	0ff4f493          	andi	s1,s1,255
    800028f4:	00c00793          	li	a5,12
    800028f8:	fc97f0e3          	bgeu	a5,s1,800028b8 <_ZL11workerBodyDPv+0x20>
    }

    printString("D: dispatch\n");
    800028fc:	00008517          	auipc	a0,0x8
    80002900:	86c50513          	addi	a0,a0,-1940 # 8000a168 <CONSOLE_STATUS+0x158>
    80002904:	00001097          	auipc	ra,0x1
    80002908:	d84080e7          	jalr	-636(ra) # 80003688 <_Z11printStringPKc>
    __asm__ ("li t1, 5");
    8000290c:	00500313          	li	t1,5
    thread_dispatch();
    80002910:	00002097          	auipc	ra,0x2
    80002914:	13c080e7          	jalr	316(ra) # 80004a4c <thread_dispatch>

    uint64 result = fibonacci(16);
    80002918:	01000513          	li	a0,16
    8000291c:	00000097          	auipc	ra,0x0
    80002920:	f08080e7          	jalr	-248(ra) # 80002824 <_ZL9fibonaccim>
    80002924:	00050913          	mv	s2,a0
    printString("D: fibonaci="); printInt(result); printString("\n");
    80002928:	00008517          	auipc	a0,0x8
    8000292c:	85050513          	addi	a0,a0,-1968 # 8000a178 <CONSOLE_STATUS+0x168>
    80002930:	00001097          	auipc	ra,0x1
    80002934:	d58080e7          	jalr	-680(ra) # 80003688 <_Z11printStringPKc>
    80002938:	00000613          	li	a2,0
    8000293c:	00a00593          	li	a1,10
    80002940:	0009051b          	sext.w	a0,s2
    80002944:	00001097          	auipc	ra,0x1
    80002948:	ef4080e7          	jalr	-268(ra) # 80003838 <_Z8printIntiii>
    8000294c:	00008517          	auipc	a0,0x8
    80002950:	a0450513          	addi	a0,a0,-1532 # 8000a350 <CONSOLE_STATUS+0x340>
    80002954:	00001097          	auipc	ra,0x1
    80002958:	d34080e7          	jalr	-716(ra) # 80003688 <_Z11printStringPKc>
    8000295c:	0400006f          	j	8000299c <_ZL11workerBodyDPv+0x104>

    for (; i < 16; i++) {
        printString("D: i="); printInt(i); printString("\n");
    80002960:	00008517          	auipc	a0,0x8
    80002964:	80050513          	addi	a0,a0,-2048 # 8000a160 <CONSOLE_STATUS+0x150>
    80002968:	00001097          	auipc	ra,0x1
    8000296c:	d20080e7          	jalr	-736(ra) # 80003688 <_Z11printStringPKc>
    80002970:	00000613          	li	a2,0
    80002974:	00a00593          	li	a1,10
    80002978:	00048513          	mv	a0,s1
    8000297c:	00001097          	auipc	ra,0x1
    80002980:	ebc080e7          	jalr	-324(ra) # 80003838 <_Z8printIntiii>
    80002984:	00008517          	auipc	a0,0x8
    80002988:	9cc50513          	addi	a0,a0,-1588 # 8000a350 <CONSOLE_STATUS+0x340>
    8000298c:	00001097          	auipc	ra,0x1
    80002990:	cfc080e7          	jalr	-772(ra) # 80003688 <_Z11printStringPKc>
    for (; i < 16; i++) {
    80002994:	0014849b          	addiw	s1,s1,1
    80002998:	0ff4f493          	andi	s1,s1,255
    8000299c:	00f00793          	li	a5,15
    800029a0:	fc97f0e3          	bgeu	a5,s1,80002960 <_ZL11workerBodyDPv+0xc8>
    }

    printString("D finished!\n");
    800029a4:	00007517          	auipc	a0,0x7
    800029a8:	7e450513          	addi	a0,a0,2020 # 8000a188 <CONSOLE_STATUS+0x178>
    800029ac:	00001097          	auipc	ra,0x1
    800029b0:	cdc080e7          	jalr	-804(ra) # 80003688 <_Z11printStringPKc>
    finishedD = true;
    800029b4:	00100793          	li	a5,1
    800029b8:	0000a717          	auipc	a4,0xa
    800029bc:	52f70023          	sb	a5,1312(a4) # 8000ced8 <_ZL9finishedD>
    thread_dispatch();
    800029c0:	00002097          	auipc	ra,0x2
    800029c4:	08c080e7          	jalr	140(ra) # 80004a4c <thread_dispatch>
}
    800029c8:	01813083          	ld	ra,24(sp)
    800029cc:	01013403          	ld	s0,16(sp)
    800029d0:	00813483          	ld	s1,8(sp)
    800029d4:	00013903          	ld	s2,0(sp)
    800029d8:	02010113          	addi	sp,sp,32
    800029dc:	00008067          	ret

00000000800029e0 <_ZL11workerBodyCPv>:
static void workerBodyC(void* arg) {
    800029e0:	fe010113          	addi	sp,sp,-32
    800029e4:	00113c23          	sd	ra,24(sp)
    800029e8:	00813823          	sd	s0,16(sp)
    800029ec:	00913423          	sd	s1,8(sp)
    800029f0:	01213023          	sd	s2,0(sp)
    800029f4:	02010413          	addi	s0,sp,32
    uint8 i = 0;
    800029f8:	00000493          	li	s1,0
    800029fc:	0400006f          	j	80002a3c <_ZL11workerBodyCPv+0x5c>
        printString("C: i="); printInt(i); printString("\n");
    80002a00:	00007517          	auipc	a0,0x7
    80002a04:	73050513          	addi	a0,a0,1840 # 8000a130 <CONSOLE_STATUS+0x120>
    80002a08:	00001097          	auipc	ra,0x1
    80002a0c:	c80080e7          	jalr	-896(ra) # 80003688 <_Z11printStringPKc>
    80002a10:	00000613          	li	a2,0
    80002a14:	00a00593          	li	a1,10
    80002a18:	00048513          	mv	a0,s1
    80002a1c:	00001097          	auipc	ra,0x1
    80002a20:	e1c080e7          	jalr	-484(ra) # 80003838 <_Z8printIntiii>
    80002a24:	00008517          	auipc	a0,0x8
    80002a28:	92c50513          	addi	a0,a0,-1748 # 8000a350 <CONSOLE_STATUS+0x340>
    80002a2c:	00001097          	auipc	ra,0x1
    80002a30:	c5c080e7          	jalr	-932(ra) # 80003688 <_Z11printStringPKc>
    for (; i < 3; i++) {
    80002a34:	0014849b          	addiw	s1,s1,1
    80002a38:	0ff4f493          	andi	s1,s1,255
    80002a3c:	00200793          	li	a5,2
    80002a40:	fc97f0e3          	bgeu	a5,s1,80002a00 <_ZL11workerBodyCPv+0x20>
    printString("C: dispatch\n");
    80002a44:	00007517          	auipc	a0,0x7
    80002a48:	6f450513          	addi	a0,a0,1780 # 8000a138 <CONSOLE_STATUS+0x128>
    80002a4c:	00001097          	auipc	ra,0x1
    80002a50:	c3c080e7          	jalr	-964(ra) # 80003688 <_Z11printStringPKc>
    __asm__ ("li t1, 7");
    80002a54:	00700313          	li	t1,7
    thread_dispatch();
    80002a58:	00002097          	auipc	ra,0x2
    80002a5c:	ff4080e7          	jalr	-12(ra) # 80004a4c <thread_dispatch>
    __asm__ ("mv %[t1], t1" : [t1] "=r"(t1));
    80002a60:	00030913          	mv	s2,t1
    printString("C: t1="); printInt(t1); printString("\n");
    80002a64:	00007517          	auipc	a0,0x7
    80002a68:	6e450513          	addi	a0,a0,1764 # 8000a148 <CONSOLE_STATUS+0x138>
    80002a6c:	00001097          	auipc	ra,0x1
    80002a70:	c1c080e7          	jalr	-996(ra) # 80003688 <_Z11printStringPKc>
    80002a74:	00000613          	li	a2,0
    80002a78:	00a00593          	li	a1,10
    80002a7c:	0009051b          	sext.w	a0,s2
    80002a80:	00001097          	auipc	ra,0x1
    80002a84:	db8080e7          	jalr	-584(ra) # 80003838 <_Z8printIntiii>
    80002a88:	00008517          	auipc	a0,0x8
    80002a8c:	8c850513          	addi	a0,a0,-1848 # 8000a350 <CONSOLE_STATUS+0x340>
    80002a90:	00001097          	auipc	ra,0x1
    80002a94:	bf8080e7          	jalr	-1032(ra) # 80003688 <_Z11printStringPKc>
    uint64 result = fibonacci(12);
    80002a98:	00c00513          	li	a0,12
    80002a9c:	00000097          	auipc	ra,0x0
    80002aa0:	d88080e7          	jalr	-632(ra) # 80002824 <_ZL9fibonaccim>
    80002aa4:	00050913          	mv	s2,a0
    printString("C: fibonaci="); printInt(result); printString("\n");
    80002aa8:	00007517          	auipc	a0,0x7
    80002aac:	6a850513          	addi	a0,a0,1704 # 8000a150 <CONSOLE_STATUS+0x140>
    80002ab0:	00001097          	auipc	ra,0x1
    80002ab4:	bd8080e7          	jalr	-1064(ra) # 80003688 <_Z11printStringPKc>
    80002ab8:	00000613          	li	a2,0
    80002abc:	00a00593          	li	a1,10
    80002ac0:	0009051b          	sext.w	a0,s2
    80002ac4:	00001097          	auipc	ra,0x1
    80002ac8:	d74080e7          	jalr	-652(ra) # 80003838 <_Z8printIntiii>
    80002acc:	00008517          	auipc	a0,0x8
    80002ad0:	88450513          	addi	a0,a0,-1916 # 8000a350 <CONSOLE_STATUS+0x340>
    80002ad4:	00001097          	auipc	ra,0x1
    80002ad8:	bb4080e7          	jalr	-1100(ra) # 80003688 <_Z11printStringPKc>
    80002adc:	0400006f          	j	80002b1c <_ZL11workerBodyCPv+0x13c>
        printString("C: i="); printInt(i); printString("\n");
    80002ae0:	00007517          	auipc	a0,0x7
    80002ae4:	65050513          	addi	a0,a0,1616 # 8000a130 <CONSOLE_STATUS+0x120>
    80002ae8:	00001097          	auipc	ra,0x1
    80002aec:	ba0080e7          	jalr	-1120(ra) # 80003688 <_Z11printStringPKc>
    80002af0:	00000613          	li	a2,0
    80002af4:	00a00593          	li	a1,10
    80002af8:	00048513          	mv	a0,s1
    80002afc:	00001097          	auipc	ra,0x1
    80002b00:	d3c080e7          	jalr	-708(ra) # 80003838 <_Z8printIntiii>
    80002b04:	00008517          	auipc	a0,0x8
    80002b08:	84c50513          	addi	a0,a0,-1972 # 8000a350 <CONSOLE_STATUS+0x340>
    80002b0c:	00001097          	auipc	ra,0x1
    80002b10:	b7c080e7          	jalr	-1156(ra) # 80003688 <_Z11printStringPKc>
    for (; i < 6; i++) {
    80002b14:	0014849b          	addiw	s1,s1,1
    80002b18:	0ff4f493          	andi	s1,s1,255
    80002b1c:	00500793          	li	a5,5
    80002b20:	fc97f0e3          	bgeu	a5,s1,80002ae0 <_ZL11workerBodyCPv+0x100>
    printString("A finished!\n");
    80002b24:	00007517          	auipc	a0,0x7
    80002b28:	5e450513          	addi	a0,a0,1508 # 8000a108 <CONSOLE_STATUS+0xf8>
    80002b2c:	00001097          	auipc	ra,0x1
    80002b30:	b5c080e7          	jalr	-1188(ra) # 80003688 <_Z11printStringPKc>
    finishedC = true;
    80002b34:	00100793          	li	a5,1
    80002b38:	0000a717          	auipc	a4,0xa
    80002b3c:	3af700a3          	sb	a5,929(a4) # 8000ced9 <_ZL9finishedC>
    thread_dispatch();
    80002b40:	00002097          	auipc	ra,0x2
    80002b44:	f0c080e7          	jalr	-244(ra) # 80004a4c <thread_dispatch>
}
    80002b48:	01813083          	ld	ra,24(sp)
    80002b4c:	01013403          	ld	s0,16(sp)
    80002b50:	00813483          	ld	s1,8(sp)
    80002b54:	00013903          	ld	s2,0(sp)
    80002b58:	02010113          	addi	sp,sp,32
    80002b5c:	00008067          	ret

0000000080002b60 <_ZL11workerBodyBPv>:
static void workerBodyB(void* arg) {
    80002b60:	fe010113          	addi	sp,sp,-32
    80002b64:	00113c23          	sd	ra,24(sp)
    80002b68:	00813823          	sd	s0,16(sp)
    80002b6c:	00913423          	sd	s1,8(sp)
    80002b70:	01213023          	sd	s2,0(sp)
    80002b74:	02010413          	addi	s0,sp,32
    for (uint64 i = 0; i < 16; i++) {
    80002b78:	00000913          	li	s2,0
    80002b7c:	0380006f          	j	80002bb4 <_ZL11workerBodyBPv+0x54>
            thread_dispatch();
    80002b80:	00002097          	auipc	ra,0x2
    80002b84:	ecc080e7          	jalr	-308(ra) # 80004a4c <thread_dispatch>
        for (uint64 j = 0; j < 10000; j++) {
    80002b88:	00148493          	addi	s1,s1,1
    80002b8c:	000027b7          	lui	a5,0x2
    80002b90:	70f78793          	addi	a5,a5,1807 # 270f <_entry-0x7fffd8f1>
    80002b94:	0097ee63          	bltu	a5,s1,80002bb0 <_ZL11workerBodyBPv+0x50>
            for (uint64 k = 0; k < 30000; k++) { /* busy wait */ }
    80002b98:	00000713          	li	a4,0
    80002b9c:	000077b7          	lui	a5,0x7
    80002ba0:	52f78793          	addi	a5,a5,1327 # 752f <_entry-0x7fff8ad1>
    80002ba4:	fce7eee3          	bltu	a5,a4,80002b80 <_ZL11workerBodyBPv+0x20>
    80002ba8:	00170713          	addi	a4,a4,1
    80002bac:	ff1ff06f          	j	80002b9c <_ZL11workerBodyBPv+0x3c>
    for (uint64 i = 0; i < 16; i++) {
    80002bb0:	00190913          	addi	s2,s2,1
    80002bb4:	00f00793          	li	a5,15
    80002bb8:	0527e063          	bltu	a5,s2,80002bf8 <_ZL11workerBodyBPv+0x98>
        printString("B: i="); printInt(i); printString("\n");
    80002bbc:	00007517          	auipc	a0,0x7
    80002bc0:	55c50513          	addi	a0,a0,1372 # 8000a118 <CONSOLE_STATUS+0x108>
    80002bc4:	00001097          	auipc	ra,0x1
    80002bc8:	ac4080e7          	jalr	-1340(ra) # 80003688 <_Z11printStringPKc>
    80002bcc:	00000613          	li	a2,0
    80002bd0:	00a00593          	li	a1,10
    80002bd4:	0009051b          	sext.w	a0,s2
    80002bd8:	00001097          	auipc	ra,0x1
    80002bdc:	c60080e7          	jalr	-928(ra) # 80003838 <_Z8printIntiii>
    80002be0:	00007517          	auipc	a0,0x7
    80002be4:	77050513          	addi	a0,a0,1904 # 8000a350 <CONSOLE_STATUS+0x340>
    80002be8:	00001097          	auipc	ra,0x1
    80002bec:	aa0080e7          	jalr	-1376(ra) # 80003688 <_Z11printStringPKc>
        for (uint64 j = 0; j < 10000; j++) {
    80002bf0:	00000493          	li	s1,0
    80002bf4:	f99ff06f          	j	80002b8c <_ZL11workerBodyBPv+0x2c>
    printString("B finished!\n");
    80002bf8:	00007517          	auipc	a0,0x7
    80002bfc:	52850513          	addi	a0,a0,1320 # 8000a120 <CONSOLE_STATUS+0x110>
    80002c00:	00001097          	auipc	ra,0x1
    80002c04:	a88080e7          	jalr	-1400(ra) # 80003688 <_Z11printStringPKc>
    finishedB = true;
    80002c08:	00100793          	li	a5,1
    80002c0c:	0000a717          	auipc	a4,0xa
    80002c10:	2cf70723          	sb	a5,718(a4) # 8000ceda <_ZL9finishedB>
    thread_dispatch();
    80002c14:	00002097          	auipc	ra,0x2
    80002c18:	e38080e7          	jalr	-456(ra) # 80004a4c <thread_dispatch>
}
    80002c1c:	01813083          	ld	ra,24(sp)
    80002c20:	01013403          	ld	s0,16(sp)
    80002c24:	00813483          	ld	s1,8(sp)
    80002c28:	00013903          	ld	s2,0(sp)
    80002c2c:	02010113          	addi	sp,sp,32
    80002c30:	00008067          	ret

0000000080002c34 <_ZL11workerBodyAPv>:
static void workerBodyA(void* arg) {
    80002c34:	fe010113          	addi	sp,sp,-32
    80002c38:	00113c23          	sd	ra,24(sp)
    80002c3c:	00813823          	sd	s0,16(sp)
    80002c40:	00913423          	sd	s1,8(sp)
    80002c44:	01213023          	sd	s2,0(sp)
    80002c48:	02010413          	addi	s0,sp,32
    for (uint64 i = 0; i < 10; i++) {
    80002c4c:	00000913          	li	s2,0
    80002c50:	0380006f          	j	80002c88 <_ZL11workerBodyAPv+0x54>
            thread_dispatch();
    80002c54:	00002097          	auipc	ra,0x2
    80002c58:	df8080e7          	jalr	-520(ra) # 80004a4c <thread_dispatch>
        for (uint64 j = 0; j < 10000; j++) {
    80002c5c:	00148493          	addi	s1,s1,1
    80002c60:	000027b7          	lui	a5,0x2
    80002c64:	70f78793          	addi	a5,a5,1807 # 270f <_entry-0x7fffd8f1>
    80002c68:	0097ee63          	bltu	a5,s1,80002c84 <_ZL11workerBodyAPv+0x50>
            for (uint64 k = 0; k < 30000; k++) { /* busy wait */ }
    80002c6c:	00000713          	li	a4,0
    80002c70:	000077b7          	lui	a5,0x7
    80002c74:	52f78793          	addi	a5,a5,1327 # 752f <_entry-0x7fff8ad1>
    80002c78:	fce7eee3          	bltu	a5,a4,80002c54 <_ZL11workerBodyAPv+0x20>
    80002c7c:	00170713          	addi	a4,a4,1
    80002c80:	ff1ff06f          	j	80002c70 <_ZL11workerBodyAPv+0x3c>
    for (uint64 i = 0; i < 10; i++) {
    80002c84:	00190913          	addi	s2,s2,1
    80002c88:	00900793          	li	a5,9
    80002c8c:	0527e063          	bltu	a5,s2,80002ccc <_ZL11workerBodyAPv+0x98>
        printString("A: i="); printInt(i); printString("\n");
    80002c90:	00007517          	auipc	a0,0x7
    80002c94:	47050513          	addi	a0,a0,1136 # 8000a100 <CONSOLE_STATUS+0xf0>
    80002c98:	00001097          	auipc	ra,0x1
    80002c9c:	9f0080e7          	jalr	-1552(ra) # 80003688 <_Z11printStringPKc>
    80002ca0:	00000613          	li	a2,0
    80002ca4:	00a00593          	li	a1,10
    80002ca8:	0009051b          	sext.w	a0,s2
    80002cac:	00001097          	auipc	ra,0x1
    80002cb0:	b8c080e7          	jalr	-1140(ra) # 80003838 <_Z8printIntiii>
    80002cb4:	00007517          	auipc	a0,0x7
    80002cb8:	69c50513          	addi	a0,a0,1692 # 8000a350 <CONSOLE_STATUS+0x340>
    80002cbc:	00001097          	auipc	ra,0x1
    80002cc0:	9cc080e7          	jalr	-1588(ra) # 80003688 <_Z11printStringPKc>
        for (uint64 j = 0; j < 10000; j++) {
    80002cc4:	00000493          	li	s1,0
    80002cc8:	f99ff06f          	j	80002c60 <_ZL11workerBodyAPv+0x2c>
    printString("A finished!\n");
    80002ccc:	00007517          	auipc	a0,0x7
    80002cd0:	43c50513          	addi	a0,a0,1084 # 8000a108 <CONSOLE_STATUS+0xf8>
    80002cd4:	00001097          	auipc	ra,0x1
    80002cd8:	9b4080e7          	jalr	-1612(ra) # 80003688 <_Z11printStringPKc>
    finishedA = true;
    80002cdc:	00100793          	li	a5,1
    80002ce0:	0000a717          	auipc	a4,0xa
    80002ce4:	1ef70da3          	sb	a5,507(a4) # 8000cedb <_ZL9finishedA>
}
    80002ce8:	01813083          	ld	ra,24(sp)
    80002cec:	01013403          	ld	s0,16(sp)
    80002cf0:	00813483          	ld	s1,8(sp)
    80002cf4:	00013903          	ld	s2,0(sp)
    80002cf8:	02010113          	addi	sp,sp,32
    80002cfc:	00008067          	ret

0000000080002d00 <_Z18Threads_C_API_testv>:


void Threads_C_API_test() {
    80002d00:	fd010113          	addi	sp,sp,-48
    80002d04:	02113423          	sd	ra,40(sp)
    80002d08:	02813023          	sd	s0,32(sp)
    80002d0c:	03010413          	addi	s0,sp,48
    thread_t threads[4];
    thread_create(&threads[0], workerBodyA, nullptr);
    80002d10:	00000613          	li	a2,0
    80002d14:	00000597          	auipc	a1,0x0
    80002d18:	f2058593          	addi	a1,a1,-224 # 80002c34 <_ZL11workerBodyAPv>
    80002d1c:	fd040513          	addi	a0,s0,-48
    80002d20:	00002097          	auipc	ra,0x2
    80002d24:	c70080e7          	jalr	-912(ra) # 80004990 <thread_create>
    printString("ThreadA created\n");
    80002d28:	00007517          	auipc	a0,0x7
    80002d2c:	47050513          	addi	a0,a0,1136 # 8000a198 <CONSOLE_STATUS+0x188>
    80002d30:	00001097          	auipc	ra,0x1
    80002d34:	958080e7          	jalr	-1704(ra) # 80003688 <_Z11printStringPKc>

    thread_create(&threads[1], workerBodyB, nullptr);
    80002d38:	00000613          	li	a2,0
    80002d3c:	00000597          	auipc	a1,0x0
    80002d40:	e2458593          	addi	a1,a1,-476 # 80002b60 <_ZL11workerBodyBPv>
    80002d44:	fd840513          	addi	a0,s0,-40
    80002d48:	00002097          	auipc	ra,0x2
    80002d4c:	c48080e7          	jalr	-952(ra) # 80004990 <thread_create>
    printString("ThreadB created\n");
    80002d50:	00007517          	auipc	a0,0x7
    80002d54:	46050513          	addi	a0,a0,1120 # 8000a1b0 <CONSOLE_STATUS+0x1a0>
    80002d58:	00001097          	auipc	ra,0x1
    80002d5c:	930080e7          	jalr	-1744(ra) # 80003688 <_Z11printStringPKc>

    thread_create(&threads[2], workerBodyC, nullptr);
    80002d60:	00000613          	li	a2,0
    80002d64:	00000597          	auipc	a1,0x0
    80002d68:	c7c58593          	addi	a1,a1,-900 # 800029e0 <_ZL11workerBodyCPv>
    80002d6c:	fe040513          	addi	a0,s0,-32
    80002d70:	00002097          	auipc	ra,0x2
    80002d74:	c20080e7          	jalr	-992(ra) # 80004990 <thread_create>
    printString("ThreadC created\n");
    80002d78:	00007517          	auipc	a0,0x7
    80002d7c:	45050513          	addi	a0,a0,1104 # 8000a1c8 <CONSOLE_STATUS+0x1b8>
    80002d80:	00001097          	auipc	ra,0x1
    80002d84:	908080e7          	jalr	-1784(ra) # 80003688 <_Z11printStringPKc>

    thread_create(&threads[3], workerBodyD, nullptr);
    80002d88:	00000613          	li	a2,0
    80002d8c:	00000597          	auipc	a1,0x0
    80002d90:	b0c58593          	addi	a1,a1,-1268 # 80002898 <_ZL11workerBodyDPv>
    80002d94:	fe840513          	addi	a0,s0,-24
    80002d98:	00002097          	auipc	ra,0x2
    80002d9c:	bf8080e7          	jalr	-1032(ra) # 80004990 <thread_create>
    printString("ThreadD created\n");
    80002da0:	00007517          	auipc	a0,0x7
    80002da4:	44050513          	addi	a0,a0,1088 # 8000a1e0 <CONSOLE_STATUS+0x1d0>
    80002da8:	00001097          	auipc	ra,0x1
    80002dac:	8e0080e7          	jalr	-1824(ra) # 80003688 <_Z11printStringPKc>
    80002db0:	00c0006f          	j	80002dbc <_Z18Threads_C_API_testv+0xbc>

    while (!(finishedA && finishedB && finishedC && finishedD)) {
        thread_dispatch();
    80002db4:	00002097          	auipc	ra,0x2
    80002db8:	c98080e7          	jalr	-872(ra) # 80004a4c <thread_dispatch>
    while (!(finishedA && finishedB && finishedC && finishedD)) {
    80002dbc:	0000a797          	auipc	a5,0xa
    80002dc0:	11f7c783          	lbu	a5,287(a5) # 8000cedb <_ZL9finishedA>
    80002dc4:	fe0788e3          	beqz	a5,80002db4 <_Z18Threads_C_API_testv+0xb4>
    80002dc8:	0000a797          	auipc	a5,0xa
    80002dcc:	1127c783          	lbu	a5,274(a5) # 8000ceda <_ZL9finishedB>
    80002dd0:	fe0782e3          	beqz	a5,80002db4 <_Z18Threads_C_API_testv+0xb4>
    80002dd4:	0000a797          	auipc	a5,0xa
    80002dd8:	1057c783          	lbu	a5,261(a5) # 8000ced9 <_ZL9finishedC>
    80002ddc:	fc078ce3          	beqz	a5,80002db4 <_Z18Threads_C_API_testv+0xb4>
    80002de0:	0000a797          	auipc	a5,0xa
    80002de4:	0f87c783          	lbu	a5,248(a5) # 8000ced8 <_ZL9finishedD>
    80002de8:	fc0786e3          	beqz	a5,80002db4 <_Z18Threads_C_API_testv+0xb4>
    }

}
    80002dec:	02813083          	ld	ra,40(sp)
    80002df0:	02013403          	ld	s0,32(sp)
    80002df4:	03010113          	addi	sp,sp,48
    80002df8:	00008067          	ret

0000000080002dfc <_ZN16ProducerKeyboard16producerKeyboardEPv>:
    void run() override {
        producerKeyboard(td);
    }
};

void ProducerKeyboard::producerKeyboard(void *arg) {
    80002dfc:	fd010113          	addi	sp,sp,-48
    80002e00:	02113423          	sd	ra,40(sp)
    80002e04:	02813023          	sd	s0,32(sp)
    80002e08:	00913c23          	sd	s1,24(sp)
    80002e0c:	01213823          	sd	s2,16(sp)
    80002e10:	01313423          	sd	s3,8(sp)
    80002e14:	03010413          	addi	s0,sp,48
    80002e18:	00050993          	mv	s3,a0
    80002e1c:	00058493          	mv	s1,a1
    struct thread_data *data = (struct thread_data *) arg;

    int key;
    int i = 0;
    80002e20:	00000913          	li	s2,0
    80002e24:	00c0006f          	j	80002e30 <_ZN16ProducerKeyboard16producerKeyboardEPv+0x34>
    while ((key = getc()) != 0x1b) {
        data->buffer->put(key);
        i++;

        if (i % (10 * data->id) == 0) {
            Thread::dispatch();
    80002e28:	00004097          	auipc	ra,0x4
    80002e2c:	c6c080e7          	jalr	-916(ra) # 80006a94 <_ZN6Thread8dispatchEv>
    while ((key = getc()) != 0x1b) {
    80002e30:	00002097          	auipc	ra,0x2
    80002e34:	e34080e7          	jalr	-460(ra) # 80004c64 <getc>
    80002e38:	0005059b          	sext.w	a1,a0
    80002e3c:	01b00793          	li	a5,27
    80002e40:	02f58a63          	beq	a1,a5,80002e74 <_ZN16ProducerKeyboard16producerKeyboardEPv+0x78>
        data->buffer->put(key);
    80002e44:	0084b503          	ld	a0,8(s1)
    80002e48:	00001097          	auipc	ra,0x1
    80002e4c:	c64080e7          	jalr	-924(ra) # 80003aac <_ZN9BufferCPP3putEi>
        i++;
    80002e50:	0019071b          	addiw	a4,s2,1
    80002e54:	0007091b          	sext.w	s2,a4
        if (i % (10 * data->id) == 0) {
    80002e58:	0004a683          	lw	a3,0(s1)
    80002e5c:	0026979b          	slliw	a5,a3,0x2
    80002e60:	00d787bb          	addw	a5,a5,a3
    80002e64:	0017979b          	slliw	a5,a5,0x1
    80002e68:	02f767bb          	remw	a5,a4,a5
    80002e6c:	fc0792e3          	bnez	a5,80002e30 <_ZN16ProducerKeyboard16producerKeyboardEPv+0x34>
    80002e70:	fb9ff06f          	j	80002e28 <_ZN16ProducerKeyboard16producerKeyboardEPv+0x2c>
        }
    }

    threadEnd = 1;
    80002e74:	00100793          	li	a5,1
    80002e78:	0000a717          	auipc	a4,0xa
    80002e7c:	06f72423          	sw	a5,104(a4) # 8000cee0 <_ZL9threadEnd>
    td->buffer->put('!');
    80002e80:	0209b783          	ld	a5,32(s3)
    80002e84:	02100593          	li	a1,33
    80002e88:	0087b503          	ld	a0,8(a5)
    80002e8c:	00001097          	auipc	ra,0x1
    80002e90:	c20080e7          	jalr	-992(ra) # 80003aac <_ZN9BufferCPP3putEi>

    data->wait->signal();
    80002e94:	0104b503          	ld	a0,16(s1)
    80002e98:	00004097          	auipc	ra,0x4
    80002e9c:	ce4080e7          	jalr	-796(ra) # 80006b7c <_ZN9Semaphore6signalEv>
}
    80002ea0:	02813083          	ld	ra,40(sp)
    80002ea4:	02013403          	ld	s0,32(sp)
    80002ea8:	01813483          	ld	s1,24(sp)
    80002eac:	01013903          	ld	s2,16(sp)
    80002eb0:	00813983          	ld	s3,8(sp)
    80002eb4:	03010113          	addi	sp,sp,48
    80002eb8:	00008067          	ret

0000000080002ebc <_ZN12ProducerSync8producerEPv>:
    void run() override {
        producer(td);
    }
};

void ProducerSync::producer(void *arg) {
    80002ebc:	fe010113          	addi	sp,sp,-32
    80002ec0:	00113c23          	sd	ra,24(sp)
    80002ec4:	00813823          	sd	s0,16(sp)
    80002ec8:	00913423          	sd	s1,8(sp)
    80002ecc:	01213023          	sd	s2,0(sp)
    80002ed0:	02010413          	addi	s0,sp,32
    80002ed4:	00058493          	mv	s1,a1
    struct thread_data *data = (struct thread_data *) arg;

    int i = 0;
    80002ed8:	00000913          	li	s2,0
    80002edc:	00c0006f          	j	80002ee8 <_ZN12ProducerSync8producerEPv+0x2c>
    while (!threadEnd) {
        data->buffer->put(data->id + '0');
        i++;

        if (i % (10 * data->id) == 0) {
            Thread::dispatch();
    80002ee0:	00004097          	auipc	ra,0x4
    80002ee4:	bb4080e7          	jalr	-1100(ra) # 80006a94 <_ZN6Thread8dispatchEv>
    while (!threadEnd) {
    80002ee8:	0000a797          	auipc	a5,0xa
    80002eec:	ff87a783          	lw	a5,-8(a5) # 8000cee0 <_ZL9threadEnd>
    80002ef0:	02079e63          	bnez	a5,80002f2c <_ZN12ProducerSync8producerEPv+0x70>
        data->buffer->put(data->id + '0');
    80002ef4:	0004a583          	lw	a1,0(s1)
    80002ef8:	0305859b          	addiw	a1,a1,48
    80002efc:	0084b503          	ld	a0,8(s1)
    80002f00:	00001097          	auipc	ra,0x1
    80002f04:	bac080e7          	jalr	-1108(ra) # 80003aac <_ZN9BufferCPP3putEi>
        i++;
    80002f08:	0019071b          	addiw	a4,s2,1
    80002f0c:	0007091b          	sext.w	s2,a4
        if (i % (10 * data->id) == 0) {
    80002f10:	0004a683          	lw	a3,0(s1)
    80002f14:	0026979b          	slliw	a5,a3,0x2
    80002f18:	00d787bb          	addw	a5,a5,a3
    80002f1c:	0017979b          	slliw	a5,a5,0x1
    80002f20:	02f767bb          	remw	a5,a4,a5
    80002f24:	fc0792e3          	bnez	a5,80002ee8 <_ZN12ProducerSync8producerEPv+0x2c>
    80002f28:	fb9ff06f          	j	80002ee0 <_ZN12ProducerSync8producerEPv+0x24>
        }
    }

    data->wait->signal();
    80002f2c:	0104b503          	ld	a0,16(s1)
    80002f30:	00004097          	auipc	ra,0x4
    80002f34:	c4c080e7          	jalr	-948(ra) # 80006b7c <_ZN9Semaphore6signalEv>
}
    80002f38:	01813083          	ld	ra,24(sp)
    80002f3c:	01013403          	ld	s0,16(sp)
    80002f40:	00813483          	ld	s1,8(sp)
    80002f44:	00013903          	ld	s2,0(sp)
    80002f48:	02010113          	addi	sp,sp,32
    80002f4c:	00008067          	ret

0000000080002f50 <_ZN12ConsumerSync8consumerEPv>:
    void run() override {
        consumer(td);
    }
};

void ConsumerSync::consumer(void *arg) {
    80002f50:	fd010113          	addi	sp,sp,-48
    80002f54:	02113423          	sd	ra,40(sp)
    80002f58:	02813023          	sd	s0,32(sp)
    80002f5c:	00913c23          	sd	s1,24(sp)
    80002f60:	01213823          	sd	s2,16(sp)
    80002f64:	01313423          	sd	s3,8(sp)
    80002f68:	01413023          	sd	s4,0(sp)
    80002f6c:	03010413          	addi	s0,sp,48
    80002f70:	00050993          	mv	s3,a0
    80002f74:	00058913          	mv	s2,a1
    struct thread_data *data = (struct thread_data *) arg;

    int i = 0;
    80002f78:	00000a13          	li	s4,0
    80002f7c:	01c0006f          	j	80002f98 <_ZN12ConsumerSync8consumerEPv+0x48>
        i++;

        putc(key);

        if (i % (5 * data->id) == 0) {
            Thread::dispatch();
    80002f80:	00004097          	auipc	ra,0x4
    80002f84:	b14080e7          	jalr	-1260(ra) # 80006a94 <_ZN6Thread8dispatchEv>
    80002f88:	0500006f          	j	80002fd8 <_ZN12ConsumerSync8consumerEPv+0x88>
        }

        if (i % 80 == 0) {
            putc('\n');
    80002f8c:	00a00513          	li	a0,10
    80002f90:	00002097          	auipc	ra,0x2
    80002f94:	d14080e7          	jalr	-748(ra) # 80004ca4 <putc>
    while (!threadEnd) {
    80002f98:	0000a797          	auipc	a5,0xa
    80002f9c:	f487a783          	lw	a5,-184(a5) # 8000cee0 <_ZL9threadEnd>
    80002fa0:	06079263          	bnez	a5,80003004 <_ZN12ConsumerSync8consumerEPv+0xb4>
        int key = data->buffer->get();
    80002fa4:	00893503          	ld	a0,8(s2)
    80002fa8:	00001097          	auipc	ra,0x1
    80002fac:	b94080e7          	jalr	-1132(ra) # 80003b3c <_ZN9BufferCPP3getEv>
        i++;
    80002fb0:	001a049b          	addiw	s1,s4,1
    80002fb4:	00048a1b          	sext.w	s4,s1
        putc(key);
    80002fb8:	0ff57513          	andi	a0,a0,255
    80002fbc:	00002097          	auipc	ra,0x2
    80002fc0:	ce8080e7          	jalr	-792(ra) # 80004ca4 <putc>
        if (i % (5 * data->id) == 0) {
    80002fc4:	00092703          	lw	a4,0(s2)
    80002fc8:	0027179b          	slliw	a5,a4,0x2
    80002fcc:	00e787bb          	addw	a5,a5,a4
    80002fd0:	02f4e7bb          	remw	a5,s1,a5
    80002fd4:	fa0786e3          	beqz	a5,80002f80 <_ZN12ConsumerSync8consumerEPv+0x30>
        if (i % 80 == 0) {
    80002fd8:	05000793          	li	a5,80
    80002fdc:	02f4e4bb          	remw	s1,s1,a5
    80002fe0:	fa049ce3          	bnez	s1,80002f98 <_ZN12ConsumerSync8consumerEPv+0x48>
    80002fe4:	fa9ff06f          	j	80002f8c <_ZN12ConsumerSync8consumerEPv+0x3c>
        }
    }


    while (td->buffer->getCnt() > 0) {
        int key = td->buffer->get();
    80002fe8:	0209b783          	ld	a5,32(s3)
    80002fec:	0087b503          	ld	a0,8(a5)
    80002ff0:	00001097          	auipc	ra,0x1
    80002ff4:	b4c080e7          	jalr	-1204(ra) # 80003b3c <_ZN9BufferCPP3getEv>
        Console::putc(key);
    80002ff8:	0ff57513          	andi	a0,a0,255
    80002ffc:	00004097          	auipc	ra,0x4
    80003000:	c7c080e7          	jalr	-900(ra) # 80006c78 <_ZN7Console4putcEc>
    while (td->buffer->getCnt() > 0) {
    80003004:	0209b783          	ld	a5,32(s3)
    80003008:	0087b503          	ld	a0,8(a5)
    8000300c:	00001097          	auipc	ra,0x1
    80003010:	bbc080e7          	jalr	-1092(ra) # 80003bc8 <_ZN9BufferCPP6getCntEv>
    80003014:	fca04ae3          	bgtz	a0,80002fe8 <_ZN12ConsumerSync8consumerEPv+0x98>
    }

    data->wait->signal();
    80003018:	01093503          	ld	a0,16(s2)
    8000301c:	00004097          	auipc	ra,0x4
    80003020:	b60080e7          	jalr	-1184(ra) # 80006b7c <_ZN9Semaphore6signalEv>
}
    80003024:	02813083          	ld	ra,40(sp)
    80003028:	02013403          	ld	s0,32(sp)
    8000302c:	01813483          	ld	s1,24(sp)
    80003030:	01013903          	ld	s2,16(sp)
    80003034:	00813983          	ld	s3,8(sp)
    80003038:	00013a03          	ld	s4,0(sp)
    8000303c:	03010113          	addi	sp,sp,48
    80003040:	00008067          	ret

0000000080003044 <_Z29producerConsumer_CPP_Sync_APIv>:

void producerConsumer_CPP_Sync_API() {
    80003044:	f8010113          	addi	sp,sp,-128
    80003048:	06113c23          	sd	ra,120(sp)
    8000304c:	06813823          	sd	s0,112(sp)
    80003050:	06913423          	sd	s1,104(sp)
    80003054:	07213023          	sd	s2,96(sp)
    80003058:	05313c23          	sd	s3,88(sp)
    8000305c:	05413823          	sd	s4,80(sp)
    80003060:	05513423          	sd	s5,72(sp)
    80003064:	05613023          	sd	s6,64(sp)
    80003068:	03713c23          	sd	s7,56(sp)
    8000306c:	03813823          	sd	s8,48(sp)
    80003070:	03913423          	sd	s9,40(sp)
    80003074:	08010413          	addi	s0,sp,128
    for (int i = 0; i < threadNum; i++) {
        delete threads[i];
    }
    delete consumerThread;
    delete waitForAll;
    delete buffer;
    80003078:	00010b93          	mv	s7,sp
    printString("Unesite broj proizvodjaca?\n");
    8000307c:	00007517          	auipc	a0,0x7
    80003080:	fa450513          	addi	a0,a0,-92 # 8000a020 <CONSOLE_STATUS+0x10>
    80003084:	00000097          	auipc	ra,0x0
    80003088:	604080e7          	jalr	1540(ra) # 80003688 <_Z11printStringPKc>
    getString(input, 30);
    8000308c:	01e00593          	li	a1,30
    80003090:	f8040493          	addi	s1,s0,-128
    80003094:	00048513          	mv	a0,s1
    80003098:	00000097          	auipc	ra,0x0
    8000309c:	678080e7          	jalr	1656(ra) # 80003710 <_Z9getStringPci>
    threadNum = stringToInt(input);
    800030a0:	00048513          	mv	a0,s1
    800030a4:	00000097          	auipc	ra,0x0
    800030a8:	744080e7          	jalr	1860(ra) # 800037e8 <_Z11stringToIntPKc>
    800030ac:	00050913          	mv	s2,a0
    printString("Unesite velicinu bafera?\n");
    800030b0:	00007517          	auipc	a0,0x7
    800030b4:	f9050513          	addi	a0,a0,-112 # 8000a040 <CONSOLE_STATUS+0x30>
    800030b8:	00000097          	auipc	ra,0x0
    800030bc:	5d0080e7          	jalr	1488(ra) # 80003688 <_Z11printStringPKc>
    getString(input, 30);
    800030c0:	01e00593          	li	a1,30
    800030c4:	00048513          	mv	a0,s1
    800030c8:	00000097          	auipc	ra,0x0
    800030cc:	648080e7          	jalr	1608(ra) # 80003710 <_Z9getStringPci>
    n = stringToInt(input);
    800030d0:	00048513          	mv	a0,s1
    800030d4:	00000097          	auipc	ra,0x0
    800030d8:	714080e7          	jalr	1812(ra) # 800037e8 <_Z11stringToIntPKc>
    800030dc:	00050493          	mv	s1,a0
    printString("Broj proizvodjaca "); printInt(threadNum);
    800030e0:	00007517          	auipc	a0,0x7
    800030e4:	f8050513          	addi	a0,a0,-128 # 8000a060 <CONSOLE_STATUS+0x50>
    800030e8:	00000097          	auipc	ra,0x0
    800030ec:	5a0080e7          	jalr	1440(ra) # 80003688 <_Z11printStringPKc>
    800030f0:	00000613          	li	a2,0
    800030f4:	00a00593          	li	a1,10
    800030f8:	00090513          	mv	a0,s2
    800030fc:	00000097          	auipc	ra,0x0
    80003100:	73c080e7          	jalr	1852(ra) # 80003838 <_Z8printIntiii>
    printString(" i velicina bafera "); printInt(n);
    80003104:	00007517          	auipc	a0,0x7
    80003108:	f7450513          	addi	a0,a0,-140 # 8000a078 <CONSOLE_STATUS+0x68>
    8000310c:	00000097          	auipc	ra,0x0
    80003110:	57c080e7          	jalr	1404(ra) # 80003688 <_Z11printStringPKc>
    80003114:	00000613          	li	a2,0
    80003118:	00a00593          	li	a1,10
    8000311c:	00048513          	mv	a0,s1
    80003120:	00000097          	auipc	ra,0x0
    80003124:	718080e7          	jalr	1816(ra) # 80003838 <_Z8printIntiii>
    printString(".\n");
    80003128:	00007517          	auipc	a0,0x7
    8000312c:	58850513          	addi	a0,a0,1416 # 8000a6b0 <CONSOLE_STATUS+0x6a0>
    80003130:	00000097          	auipc	ra,0x0
    80003134:	558080e7          	jalr	1368(ra) # 80003688 <_Z11printStringPKc>
    if(threadNum > n) {
    80003138:	0324c463          	blt	s1,s2,80003160 <_Z29producerConsumer_CPP_Sync_APIv+0x11c>
    } else if (threadNum < 1) {
    8000313c:	03205c63          	blez	s2,80003174 <_Z29producerConsumer_CPP_Sync_APIv+0x130>
    BufferCPP *buffer = new BufferCPP(n);
    80003140:	03800513          	li	a0,56
    80003144:	00004097          	auipc	ra,0x4
    80003148:	814080e7          	jalr	-2028(ra) # 80006958 <_Znwm>
    8000314c:	00050a93          	mv	s5,a0
    80003150:	00048593          	mv	a1,s1
    80003154:	00001097          	auipc	ra,0x1
    80003158:	804080e7          	jalr	-2044(ra) # 80003958 <_ZN9BufferCPPC1Ei>
    8000315c:	0300006f          	j	8000318c <_Z29producerConsumer_CPP_Sync_APIv+0x148>
        printString("Broj proizvodjaca ne sme biti manji od velicine bafera!\n");
    80003160:	00007517          	auipc	a0,0x7
    80003164:	f3050513          	addi	a0,a0,-208 # 8000a090 <CONSOLE_STATUS+0x80>
    80003168:	00000097          	auipc	ra,0x0
    8000316c:	520080e7          	jalr	1312(ra) # 80003688 <_Z11printStringPKc>
        return;
    80003170:	0140006f          	j	80003184 <_Z29producerConsumer_CPP_Sync_APIv+0x140>
        printString("Broj proizvodjaca mora biti veci od nula!\n");
    80003174:	00007517          	auipc	a0,0x7
    80003178:	f5c50513          	addi	a0,a0,-164 # 8000a0d0 <CONSOLE_STATUS+0xc0>
    8000317c:	00000097          	auipc	ra,0x0
    80003180:	50c080e7          	jalr	1292(ra) # 80003688 <_Z11printStringPKc>
        return;
    80003184:	000b8113          	mv	sp,s7
    80003188:	2380006f          	j	800033c0 <_Z29producerConsumer_CPP_Sync_APIv+0x37c>
    waitForAll = new Semaphore(0);
    8000318c:	01000513          	li	a0,16
    80003190:	00003097          	auipc	ra,0x3
    80003194:	7c8080e7          	jalr	1992(ra) # 80006958 <_Znwm>
    80003198:	00050493          	mv	s1,a0
    8000319c:	00000593          	li	a1,0
    800031a0:	00004097          	auipc	ra,0x4
    800031a4:	974080e7          	jalr	-1676(ra) # 80006b14 <_ZN9SemaphoreC1Ej>
    800031a8:	0000a797          	auipc	a5,0xa
    800031ac:	d497b023          	sd	s1,-704(a5) # 8000cee8 <_ZL10waitForAll>
    Thread* threads[threadNum];
    800031b0:	00391793          	slli	a5,s2,0x3
    800031b4:	00f78793          	addi	a5,a5,15
    800031b8:	ff07f793          	andi	a5,a5,-16
    800031bc:	40f10133          	sub	sp,sp,a5
    800031c0:	00010993          	mv	s3,sp
    struct thread_data data[threadNum + 1];
    800031c4:	0019071b          	addiw	a4,s2,1
    800031c8:	00171793          	slli	a5,a4,0x1
    800031cc:	00e787b3          	add	a5,a5,a4
    800031d0:	00379793          	slli	a5,a5,0x3
    800031d4:	00f78793          	addi	a5,a5,15
    800031d8:	ff07f793          	andi	a5,a5,-16
    800031dc:	40f10133          	sub	sp,sp,a5
    800031e0:	00010a13          	mv	s4,sp
    data[threadNum].id = threadNum;
    800031e4:	00191c13          	slli	s8,s2,0x1
    800031e8:	012c07b3          	add	a5,s8,s2
    800031ec:	00379793          	slli	a5,a5,0x3
    800031f0:	00fa07b3          	add	a5,s4,a5
    800031f4:	0127a023          	sw	s2,0(a5)
    data[threadNum].buffer = buffer;
    800031f8:	0157b423          	sd	s5,8(a5)
    data[threadNum].wait = waitForAll;
    800031fc:	0097b823          	sd	s1,16(a5)
    consumerThread = new ConsumerSync(data+threadNum);
    80003200:	02800513          	li	a0,40
    80003204:	00003097          	auipc	ra,0x3
    80003208:	754080e7          	jalr	1876(ra) # 80006958 <_Znwm>
    8000320c:	00050b13          	mv	s6,a0
    80003210:	012c0c33          	add	s8,s8,s2
    80003214:	003c1c13          	slli	s8,s8,0x3
    80003218:	018a0c33          	add	s8,s4,s8
    ConsumerSync(thread_data* _td):Thread(), td(_td) {}
    8000321c:	00004097          	auipc	ra,0x4
    80003220:	8c8080e7          	jalr	-1848(ra) # 80006ae4 <_ZN6ThreadC1Ev>
    80003224:	0000a797          	auipc	a5,0xa
    80003228:	adc78793          	addi	a5,a5,-1316 # 8000cd00 <_ZTV12ConsumerSync+0x10>
    8000322c:	00fb3023          	sd	a5,0(s6)
    80003230:	038b3023          	sd	s8,32(s6)
    consumerThread->start();
    80003234:	000b0513          	mv	a0,s6
    80003238:	00004097          	auipc	ra,0x4
    8000323c:	808080e7          	jalr	-2040(ra) # 80006a40 <_ZN6Thread5startEv>
    for (int i = 0; i < threadNum; i++) {
    80003240:	00000493          	li	s1,0
    80003244:	0380006f          	j	8000327c <_Z29producerConsumer_CPP_Sync_APIv+0x238>
    ProducerSync(thread_data* _td):Thread(), td(_td) {}
    80003248:	0000a797          	auipc	a5,0xa
    8000324c:	a9078793          	addi	a5,a5,-1392 # 8000ccd8 <_ZTV12ProducerSync+0x10>
    80003250:	00fcb023          	sd	a5,0(s9)
    80003254:	038cb023          	sd	s8,32(s9)
            threads[i] = new ProducerSync(data+i);
    80003258:	00349793          	slli	a5,s1,0x3
    8000325c:	00f987b3          	add	a5,s3,a5
    80003260:	0197b023          	sd	s9,0(a5)
        threads[i]->start();
    80003264:	00349793          	slli	a5,s1,0x3
    80003268:	00f987b3          	add	a5,s3,a5
    8000326c:	0007b503          	ld	a0,0(a5)
    80003270:	00003097          	auipc	ra,0x3
    80003274:	7d0080e7          	jalr	2000(ra) # 80006a40 <_ZN6Thread5startEv>
    for (int i = 0; i < threadNum; i++) {
    80003278:	0014849b          	addiw	s1,s1,1
    8000327c:	0b24d063          	bge	s1,s2,8000331c <_Z29producerConsumer_CPP_Sync_APIv+0x2d8>
        data[i].id = i;
    80003280:	00149793          	slli	a5,s1,0x1
    80003284:	009787b3          	add	a5,a5,s1
    80003288:	00379793          	slli	a5,a5,0x3
    8000328c:	00fa07b3          	add	a5,s4,a5
    80003290:	0097a023          	sw	s1,0(a5)
        data[i].buffer = buffer;
    80003294:	0157b423          	sd	s5,8(a5)
        data[i].wait = waitForAll;
    80003298:	0000a717          	auipc	a4,0xa
    8000329c:	c5073703          	ld	a4,-944(a4) # 8000cee8 <_ZL10waitForAll>
    800032a0:	00e7b823          	sd	a4,16(a5)
        if(i>0) {
    800032a4:	02905863          	blez	s1,800032d4 <_Z29producerConsumer_CPP_Sync_APIv+0x290>
            threads[i] = new ProducerSync(data+i);
    800032a8:	02800513          	li	a0,40
    800032ac:	00003097          	auipc	ra,0x3
    800032b0:	6ac080e7          	jalr	1708(ra) # 80006958 <_Znwm>
    800032b4:	00050c93          	mv	s9,a0
    800032b8:	00149c13          	slli	s8,s1,0x1
    800032bc:	009c0c33          	add	s8,s8,s1
    800032c0:	003c1c13          	slli	s8,s8,0x3
    800032c4:	018a0c33          	add	s8,s4,s8
    ProducerSync(thread_data* _td):Thread(), td(_td) {}
    800032c8:	00004097          	auipc	ra,0x4
    800032cc:	81c080e7          	jalr	-2020(ra) # 80006ae4 <_ZN6ThreadC1Ev>
    800032d0:	f79ff06f          	j	80003248 <_Z29producerConsumer_CPP_Sync_APIv+0x204>
            threads[i] = new ProducerKeyboard(data+i);
    800032d4:	02800513          	li	a0,40
    800032d8:	00003097          	auipc	ra,0x3
    800032dc:	680080e7          	jalr	1664(ra) # 80006958 <_Znwm>
    800032e0:	00050c93          	mv	s9,a0
    800032e4:	00149c13          	slli	s8,s1,0x1
    800032e8:	009c0c33          	add	s8,s8,s1
    800032ec:	003c1c13          	slli	s8,s8,0x3
    800032f0:	018a0c33          	add	s8,s4,s8
    ProducerKeyboard(thread_data* _td):Thread(), td(_td) {}
    800032f4:	00003097          	auipc	ra,0x3
    800032f8:	7f0080e7          	jalr	2032(ra) # 80006ae4 <_ZN6ThreadC1Ev>
    800032fc:	0000a797          	auipc	a5,0xa
    80003300:	9b478793          	addi	a5,a5,-1612 # 8000ccb0 <_ZTV16ProducerKeyboard+0x10>
    80003304:	00fcb023          	sd	a5,0(s9)
    80003308:	038cb023          	sd	s8,32(s9)
            threads[i] = new ProducerKeyboard(data+i);
    8000330c:	00349793          	slli	a5,s1,0x3
    80003310:	00f987b3          	add	a5,s3,a5
    80003314:	0197b023          	sd	s9,0(a5)
    80003318:	f4dff06f          	j	80003264 <_Z29producerConsumer_CPP_Sync_APIv+0x220>
    Thread::dispatch();
    8000331c:	00003097          	auipc	ra,0x3
    80003320:	778080e7          	jalr	1912(ra) # 80006a94 <_ZN6Thread8dispatchEv>
    for (int i = 0; i <= threadNum; i++) {
    80003324:	00000493          	li	s1,0
    80003328:	00994e63          	blt	s2,s1,80003344 <_Z29producerConsumer_CPP_Sync_APIv+0x300>
        waitForAll->wait();
    8000332c:	0000a517          	auipc	a0,0xa
    80003330:	bbc53503          	ld	a0,-1092(a0) # 8000cee8 <_ZL10waitForAll>
    80003334:	00004097          	auipc	ra,0x4
    80003338:	81c080e7          	jalr	-2020(ra) # 80006b50 <_ZN9Semaphore4waitEv>
    for (int i = 0; i <= threadNum; i++) {
    8000333c:	0014849b          	addiw	s1,s1,1
    80003340:	fe9ff06f          	j	80003328 <_Z29producerConsumer_CPP_Sync_APIv+0x2e4>
    for (int i = 0; i < threadNum; i++) {
    80003344:	00000493          	li	s1,0
    80003348:	0080006f          	j	80003350 <_Z29producerConsumer_CPP_Sync_APIv+0x30c>
    8000334c:	0014849b          	addiw	s1,s1,1
    80003350:	0324d263          	bge	s1,s2,80003374 <_Z29producerConsumer_CPP_Sync_APIv+0x330>
        delete threads[i];
    80003354:	00349793          	slli	a5,s1,0x3
    80003358:	00f987b3          	add	a5,s3,a5
    8000335c:	0007b503          	ld	a0,0(a5)
    80003360:	fe0506e3          	beqz	a0,8000334c <_Z29producerConsumer_CPP_Sync_APIv+0x308>
    80003364:	00053783          	ld	a5,0(a0)
    80003368:	0087b783          	ld	a5,8(a5)
    8000336c:	000780e7          	jalr	a5
    80003370:	fddff06f          	j	8000334c <_Z29producerConsumer_CPP_Sync_APIv+0x308>
    delete consumerThread;
    80003374:	000b0a63          	beqz	s6,80003388 <_Z29producerConsumer_CPP_Sync_APIv+0x344>
    80003378:	000b3783          	ld	a5,0(s6)
    8000337c:	0087b783          	ld	a5,8(a5)
    80003380:	000b0513          	mv	a0,s6
    80003384:	000780e7          	jalr	a5
    delete waitForAll;
    80003388:	0000a517          	auipc	a0,0xa
    8000338c:	b6053503          	ld	a0,-1184(a0) # 8000cee8 <_ZL10waitForAll>
    80003390:	00050863          	beqz	a0,800033a0 <_Z29producerConsumer_CPP_Sync_APIv+0x35c>
    80003394:	00053783          	ld	a5,0(a0)
    80003398:	0087b783          	ld	a5,8(a5)
    8000339c:	000780e7          	jalr	a5
    delete buffer;
    800033a0:	000a8e63          	beqz	s5,800033bc <_Z29producerConsumer_CPP_Sync_APIv+0x378>
    800033a4:	000a8513          	mv	a0,s5
    800033a8:	00001097          	auipc	ra,0x1
    800033ac:	8a8080e7          	jalr	-1880(ra) # 80003c50 <_ZN9BufferCPPD1Ev>
    800033b0:	000a8513          	mv	a0,s5
    800033b4:	00003097          	auipc	ra,0x3
    800033b8:	5cc080e7          	jalr	1484(ra) # 80006980 <_ZdlPv>
    800033bc:	000b8113          	mv	sp,s7

}
    800033c0:	f8040113          	addi	sp,s0,-128
    800033c4:	07813083          	ld	ra,120(sp)
    800033c8:	07013403          	ld	s0,112(sp)
    800033cc:	06813483          	ld	s1,104(sp)
    800033d0:	06013903          	ld	s2,96(sp)
    800033d4:	05813983          	ld	s3,88(sp)
    800033d8:	05013a03          	ld	s4,80(sp)
    800033dc:	04813a83          	ld	s5,72(sp)
    800033e0:	04013b03          	ld	s6,64(sp)
    800033e4:	03813b83          	ld	s7,56(sp)
    800033e8:	03013c03          	ld	s8,48(sp)
    800033ec:	02813c83          	ld	s9,40(sp)
    800033f0:	08010113          	addi	sp,sp,128
    800033f4:	00008067          	ret
    800033f8:	00050493          	mv	s1,a0
    BufferCPP *buffer = new BufferCPP(n);
    800033fc:	000a8513          	mv	a0,s5
    80003400:	00003097          	auipc	ra,0x3
    80003404:	580080e7          	jalr	1408(ra) # 80006980 <_ZdlPv>
    80003408:	00048513          	mv	a0,s1
    8000340c:	0000b097          	auipc	ra,0xb
    80003410:	c3c080e7          	jalr	-964(ra) # 8000e048 <_Unwind_Resume>
    80003414:	00050913          	mv	s2,a0
    waitForAll = new Semaphore(0);
    80003418:	00048513          	mv	a0,s1
    8000341c:	00003097          	auipc	ra,0x3
    80003420:	564080e7          	jalr	1380(ra) # 80006980 <_ZdlPv>
    80003424:	00090513          	mv	a0,s2
    80003428:	0000b097          	auipc	ra,0xb
    8000342c:	c20080e7          	jalr	-992(ra) # 8000e048 <_Unwind_Resume>
    80003430:	00050493          	mv	s1,a0
    consumerThread = new ConsumerSync(data+threadNum);
    80003434:	000b0513          	mv	a0,s6
    80003438:	00003097          	auipc	ra,0x3
    8000343c:	548080e7          	jalr	1352(ra) # 80006980 <_ZdlPv>
    80003440:	00048513          	mv	a0,s1
    80003444:	0000b097          	auipc	ra,0xb
    80003448:	c04080e7          	jalr	-1020(ra) # 8000e048 <_Unwind_Resume>
    8000344c:	00050493          	mv	s1,a0
            threads[i] = new ProducerSync(data+i);
    80003450:	000c8513          	mv	a0,s9
    80003454:	00003097          	auipc	ra,0x3
    80003458:	52c080e7          	jalr	1324(ra) # 80006980 <_ZdlPv>
    8000345c:	00048513          	mv	a0,s1
    80003460:	0000b097          	auipc	ra,0xb
    80003464:	be8080e7          	jalr	-1048(ra) # 8000e048 <_Unwind_Resume>
    80003468:	00050493          	mv	s1,a0
            threads[i] = new ProducerKeyboard(data+i);
    8000346c:	000c8513          	mv	a0,s9
    80003470:	00003097          	auipc	ra,0x3
    80003474:	510080e7          	jalr	1296(ra) # 80006980 <_ZdlPv>
    80003478:	00048513          	mv	a0,s1
    8000347c:	0000b097          	auipc	ra,0xb
    80003480:	bcc080e7          	jalr	-1076(ra) # 8000e048 <_Unwind_Resume>

0000000080003484 <_ZN12ConsumerSyncD1Ev>:
class ConsumerSync:public Thread {
    80003484:	ff010113          	addi	sp,sp,-16
    80003488:	00113423          	sd	ra,8(sp)
    8000348c:	00813023          	sd	s0,0(sp)
    80003490:	01010413          	addi	s0,sp,16
    80003494:	0000a797          	auipc	a5,0xa
    80003498:	86c78793          	addi	a5,a5,-1940 # 8000cd00 <_ZTV12ConsumerSync+0x10>
    8000349c:	00f53023          	sd	a5,0(a0)
    800034a0:	00003097          	auipc	ra,0x3
    800034a4:	43c080e7          	jalr	1084(ra) # 800068dc <_ZN6ThreadD1Ev>
    800034a8:	00813083          	ld	ra,8(sp)
    800034ac:	00013403          	ld	s0,0(sp)
    800034b0:	01010113          	addi	sp,sp,16
    800034b4:	00008067          	ret

00000000800034b8 <_ZN12ConsumerSyncD0Ev>:
    800034b8:	fe010113          	addi	sp,sp,-32
    800034bc:	00113c23          	sd	ra,24(sp)
    800034c0:	00813823          	sd	s0,16(sp)
    800034c4:	00913423          	sd	s1,8(sp)
    800034c8:	02010413          	addi	s0,sp,32
    800034cc:	00050493          	mv	s1,a0
    800034d0:	0000a797          	auipc	a5,0xa
    800034d4:	83078793          	addi	a5,a5,-2000 # 8000cd00 <_ZTV12ConsumerSync+0x10>
    800034d8:	00f53023          	sd	a5,0(a0)
    800034dc:	00003097          	auipc	ra,0x3
    800034e0:	400080e7          	jalr	1024(ra) # 800068dc <_ZN6ThreadD1Ev>
    800034e4:	00048513          	mv	a0,s1
    800034e8:	00003097          	auipc	ra,0x3
    800034ec:	498080e7          	jalr	1176(ra) # 80006980 <_ZdlPv>
    800034f0:	01813083          	ld	ra,24(sp)
    800034f4:	01013403          	ld	s0,16(sp)
    800034f8:	00813483          	ld	s1,8(sp)
    800034fc:	02010113          	addi	sp,sp,32
    80003500:	00008067          	ret

0000000080003504 <_ZN12ProducerSyncD1Ev>:
class ProducerSync:public Thread {
    80003504:	ff010113          	addi	sp,sp,-16
    80003508:	00113423          	sd	ra,8(sp)
    8000350c:	00813023          	sd	s0,0(sp)
    80003510:	01010413          	addi	s0,sp,16
    80003514:	00009797          	auipc	a5,0x9
    80003518:	7c478793          	addi	a5,a5,1988 # 8000ccd8 <_ZTV12ProducerSync+0x10>
    8000351c:	00f53023          	sd	a5,0(a0)
    80003520:	00003097          	auipc	ra,0x3
    80003524:	3bc080e7          	jalr	956(ra) # 800068dc <_ZN6ThreadD1Ev>
    80003528:	00813083          	ld	ra,8(sp)
    8000352c:	00013403          	ld	s0,0(sp)
    80003530:	01010113          	addi	sp,sp,16
    80003534:	00008067          	ret

0000000080003538 <_ZN12ProducerSyncD0Ev>:
    80003538:	fe010113          	addi	sp,sp,-32
    8000353c:	00113c23          	sd	ra,24(sp)
    80003540:	00813823          	sd	s0,16(sp)
    80003544:	00913423          	sd	s1,8(sp)
    80003548:	02010413          	addi	s0,sp,32
    8000354c:	00050493          	mv	s1,a0
    80003550:	00009797          	auipc	a5,0x9
    80003554:	78878793          	addi	a5,a5,1928 # 8000ccd8 <_ZTV12ProducerSync+0x10>
    80003558:	00f53023          	sd	a5,0(a0)
    8000355c:	00003097          	auipc	ra,0x3
    80003560:	380080e7          	jalr	896(ra) # 800068dc <_ZN6ThreadD1Ev>
    80003564:	00048513          	mv	a0,s1
    80003568:	00003097          	auipc	ra,0x3
    8000356c:	418080e7          	jalr	1048(ra) # 80006980 <_ZdlPv>
    80003570:	01813083          	ld	ra,24(sp)
    80003574:	01013403          	ld	s0,16(sp)
    80003578:	00813483          	ld	s1,8(sp)
    8000357c:	02010113          	addi	sp,sp,32
    80003580:	00008067          	ret

0000000080003584 <_ZN16ProducerKeyboardD1Ev>:
class ProducerKeyboard:public Thread {
    80003584:	ff010113          	addi	sp,sp,-16
    80003588:	00113423          	sd	ra,8(sp)
    8000358c:	00813023          	sd	s0,0(sp)
    80003590:	01010413          	addi	s0,sp,16
    80003594:	00009797          	auipc	a5,0x9
    80003598:	71c78793          	addi	a5,a5,1820 # 8000ccb0 <_ZTV16ProducerKeyboard+0x10>
    8000359c:	00f53023          	sd	a5,0(a0)
    800035a0:	00003097          	auipc	ra,0x3
    800035a4:	33c080e7          	jalr	828(ra) # 800068dc <_ZN6ThreadD1Ev>
    800035a8:	00813083          	ld	ra,8(sp)
    800035ac:	00013403          	ld	s0,0(sp)
    800035b0:	01010113          	addi	sp,sp,16
    800035b4:	00008067          	ret

00000000800035b8 <_ZN16ProducerKeyboardD0Ev>:
    800035b8:	fe010113          	addi	sp,sp,-32
    800035bc:	00113c23          	sd	ra,24(sp)
    800035c0:	00813823          	sd	s0,16(sp)
    800035c4:	00913423          	sd	s1,8(sp)
    800035c8:	02010413          	addi	s0,sp,32
    800035cc:	00050493          	mv	s1,a0
    800035d0:	00009797          	auipc	a5,0x9
    800035d4:	6e078793          	addi	a5,a5,1760 # 8000ccb0 <_ZTV16ProducerKeyboard+0x10>
    800035d8:	00f53023          	sd	a5,0(a0)
    800035dc:	00003097          	auipc	ra,0x3
    800035e0:	300080e7          	jalr	768(ra) # 800068dc <_ZN6ThreadD1Ev>
    800035e4:	00048513          	mv	a0,s1
    800035e8:	00003097          	auipc	ra,0x3
    800035ec:	398080e7          	jalr	920(ra) # 80006980 <_ZdlPv>
    800035f0:	01813083          	ld	ra,24(sp)
    800035f4:	01013403          	ld	s0,16(sp)
    800035f8:	00813483          	ld	s1,8(sp)
    800035fc:	02010113          	addi	sp,sp,32
    80003600:	00008067          	ret

0000000080003604 <_ZN16ProducerKeyboard3runEv>:
    void run() override {
    80003604:	ff010113          	addi	sp,sp,-16
    80003608:	00113423          	sd	ra,8(sp)
    8000360c:	00813023          	sd	s0,0(sp)
    80003610:	01010413          	addi	s0,sp,16
        producerKeyboard(td);
    80003614:	02053583          	ld	a1,32(a0)
    80003618:	fffff097          	auipc	ra,0xfffff
    8000361c:	7e4080e7          	jalr	2020(ra) # 80002dfc <_ZN16ProducerKeyboard16producerKeyboardEPv>
    }
    80003620:	00813083          	ld	ra,8(sp)
    80003624:	00013403          	ld	s0,0(sp)
    80003628:	01010113          	addi	sp,sp,16
    8000362c:	00008067          	ret

0000000080003630 <_ZN12ProducerSync3runEv>:
    void run() override {
    80003630:	ff010113          	addi	sp,sp,-16
    80003634:	00113423          	sd	ra,8(sp)
    80003638:	00813023          	sd	s0,0(sp)
    8000363c:	01010413          	addi	s0,sp,16
        producer(td);
    80003640:	02053583          	ld	a1,32(a0)
    80003644:	00000097          	auipc	ra,0x0
    80003648:	878080e7          	jalr	-1928(ra) # 80002ebc <_ZN12ProducerSync8producerEPv>
    }
    8000364c:	00813083          	ld	ra,8(sp)
    80003650:	00013403          	ld	s0,0(sp)
    80003654:	01010113          	addi	sp,sp,16
    80003658:	00008067          	ret

000000008000365c <_ZN12ConsumerSync3runEv>:
    void run() override {
    8000365c:	ff010113          	addi	sp,sp,-16
    80003660:	00113423          	sd	ra,8(sp)
    80003664:	00813023          	sd	s0,0(sp)
    80003668:	01010413          	addi	s0,sp,16
        consumer(td);
    8000366c:	02053583          	ld	a1,32(a0)
    80003670:	00000097          	auipc	ra,0x0
    80003674:	8e0080e7          	jalr	-1824(ra) # 80002f50 <_ZN12ConsumerSync8consumerEPv>
    }
    80003678:	00813083          	ld	ra,8(sp)
    8000367c:	00013403          	ld	s0,0(sp)
    80003680:	01010113          	addi	sp,sp,16
    80003684:	00008067          	ret

0000000080003688 <_Z11printStringPKc>:

#define LOCK() while(copy_and_swap(lockPrint, 0, 1)) thread_dispatch()
#define UNLOCK() while(copy_and_swap(lockPrint, 1, 0))

void printString(char const *string)
{
    80003688:	fe010113          	addi	sp,sp,-32
    8000368c:	00113c23          	sd	ra,24(sp)
    80003690:	00813823          	sd	s0,16(sp)
    80003694:	00913423          	sd	s1,8(sp)
    80003698:	02010413          	addi	s0,sp,32
    8000369c:	00050493          	mv	s1,a0
    LOCK();
    800036a0:	00100613          	li	a2,1
    800036a4:	00000593          	li	a1,0
    800036a8:	0000a517          	auipc	a0,0xa
    800036ac:	84850513          	addi	a0,a0,-1976 # 8000cef0 <lockPrint>
    800036b0:	ffffe097          	auipc	ra,0xffffe
    800036b4:	950080e7          	jalr	-1712(ra) # 80001000 <copy_and_swap>
    800036b8:	00050863          	beqz	a0,800036c8 <_Z11printStringPKc+0x40>
    800036bc:	00001097          	auipc	ra,0x1
    800036c0:	390080e7          	jalr	912(ra) # 80004a4c <thread_dispatch>
    800036c4:	fddff06f          	j	800036a0 <_Z11printStringPKc+0x18>
    while (*string != '\0')
    800036c8:	0004c503          	lbu	a0,0(s1)
    800036cc:	00050a63          	beqz	a0,800036e0 <_Z11printStringPKc+0x58>
    {
        putc(*string);
    800036d0:	00001097          	auipc	ra,0x1
    800036d4:	5d4080e7          	jalr	1492(ra) # 80004ca4 <putc>
        string++;
    800036d8:	00148493          	addi	s1,s1,1
    while (*string != '\0')
    800036dc:	fedff06f          	j	800036c8 <_Z11printStringPKc+0x40>
    }
    UNLOCK();
    800036e0:	00000613          	li	a2,0
    800036e4:	00100593          	li	a1,1
    800036e8:	0000a517          	auipc	a0,0xa
    800036ec:	80850513          	addi	a0,a0,-2040 # 8000cef0 <lockPrint>
    800036f0:	ffffe097          	auipc	ra,0xffffe
    800036f4:	910080e7          	jalr	-1776(ra) # 80001000 <copy_and_swap>
    800036f8:	fe0514e3          	bnez	a0,800036e0 <_Z11printStringPKc+0x58>
}
    800036fc:	01813083          	ld	ra,24(sp)
    80003700:	01013403          	ld	s0,16(sp)
    80003704:	00813483          	ld	s1,8(sp)
    80003708:	02010113          	addi	sp,sp,32
    8000370c:	00008067          	ret

0000000080003710 <_Z9getStringPci>:

char* getString(char *buf, int max) {
    80003710:	fd010113          	addi	sp,sp,-48
    80003714:	02113423          	sd	ra,40(sp)
    80003718:	02813023          	sd	s0,32(sp)
    8000371c:	00913c23          	sd	s1,24(sp)
    80003720:	01213823          	sd	s2,16(sp)
    80003724:	01313423          	sd	s3,8(sp)
    80003728:	01413023          	sd	s4,0(sp)
    8000372c:	03010413          	addi	s0,sp,48
    80003730:	00050993          	mv	s3,a0
    80003734:	00058a13          	mv	s4,a1
    LOCK();
    80003738:	00100613          	li	a2,1
    8000373c:	00000593          	li	a1,0
    80003740:	00009517          	auipc	a0,0x9
    80003744:	7b050513          	addi	a0,a0,1968 # 8000cef0 <lockPrint>
    80003748:	ffffe097          	auipc	ra,0xffffe
    8000374c:	8b8080e7          	jalr	-1864(ra) # 80001000 <copy_and_swap>
    80003750:	00050863          	beqz	a0,80003760 <_Z9getStringPci+0x50>
    80003754:	00001097          	auipc	ra,0x1
    80003758:	2f8080e7          	jalr	760(ra) # 80004a4c <thread_dispatch>
    8000375c:	fddff06f          	j	80003738 <_Z9getStringPci+0x28>
    int i, cc;
    char c;

    for(i=0; i+1 < max; ){
    80003760:	00000913          	li	s2,0
    80003764:	00090493          	mv	s1,s2
    80003768:	0019091b          	addiw	s2,s2,1
    8000376c:	03495a63          	bge	s2,s4,800037a0 <_Z9getStringPci+0x90>
        cc = getc();
    80003770:	00001097          	auipc	ra,0x1
    80003774:	4f4080e7          	jalr	1268(ra) # 80004c64 <getc>
        if(cc < 1)
    80003778:	02050463          	beqz	a0,800037a0 <_Z9getStringPci+0x90>
            break;
        c = cc;
        buf[i++] = c;
    8000377c:	009984b3          	add	s1,s3,s1
    80003780:	00a48023          	sb	a0,0(s1)
        if(c == '\n' || c == '\r')
    80003784:	00a00793          	li	a5,10
    80003788:	00f50a63          	beq	a0,a5,8000379c <_Z9getStringPci+0x8c>
    8000378c:	00d00793          	li	a5,13
    80003790:	fcf51ae3          	bne	a0,a5,80003764 <_Z9getStringPci+0x54>
        buf[i++] = c;
    80003794:	00090493          	mv	s1,s2
    80003798:	0080006f          	j	800037a0 <_Z9getStringPci+0x90>
    8000379c:	00090493          	mv	s1,s2
            break;
    }
    buf[i] = '\0';
    800037a0:	009984b3          	add	s1,s3,s1
    800037a4:	00048023          	sb	zero,0(s1)

    UNLOCK();
    800037a8:	00000613          	li	a2,0
    800037ac:	00100593          	li	a1,1
    800037b0:	00009517          	auipc	a0,0x9
    800037b4:	74050513          	addi	a0,a0,1856 # 8000cef0 <lockPrint>
    800037b8:	ffffe097          	auipc	ra,0xffffe
    800037bc:	848080e7          	jalr	-1976(ra) # 80001000 <copy_and_swap>
    800037c0:	fe0514e3          	bnez	a0,800037a8 <_Z9getStringPci+0x98>
    return buf;
}
    800037c4:	00098513          	mv	a0,s3
    800037c8:	02813083          	ld	ra,40(sp)
    800037cc:	02013403          	ld	s0,32(sp)
    800037d0:	01813483          	ld	s1,24(sp)
    800037d4:	01013903          	ld	s2,16(sp)
    800037d8:	00813983          	ld	s3,8(sp)
    800037dc:	00013a03          	ld	s4,0(sp)
    800037e0:	03010113          	addi	sp,sp,48
    800037e4:	00008067          	ret

00000000800037e8 <_Z11stringToIntPKc>:

int stringToInt(const char *s) {
    800037e8:	ff010113          	addi	sp,sp,-16
    800037ec:	00813423          	sd	s0,8(sp)
    800037f0:	01010413          	addi	s0,sp,16
    800037f4:	00050693          	mv	a3,a0
    int n;

    n = 0;
    800037f8:	00000513          	li	a0,0
    while ('0' <= *s && *s <= '9')
    800037fc:	0006c603          	lbu	a2,0(a3)
    80003800:	fd06071b          	addiw	a4,a2,-48
    80003804:	0ff77713          	andi	a4,a4,255
    80003808:	00900793          	li	a5,9
    8000380c:	02e7e063          	bltu	a5,a4,8000382c <_Z11stringToIntPKc+0x44>
        n = n * 10 + *s++ - '0';
    80003810:	0025179b          	slliw	a5,a0,0x2
    80003814:	00a787bb          	addw	a5,a5,a0
    80003818:	0017979b          	slliw	a5,a5,0x1
    8000381c:	00168693          	addi	a3,a3,1
    80003820:	00c787bb          	addw	a5,a5,a2
    80003824:	fd07851b          	addiw	a0,a5,-48
    while ('0' <= *s && *s <= '9')
    80003828:	fd5ff06f          	j	800037fc <_Z11stringToIntPKc+0x14>
    return n;
}
    8000382c:	00813403          	ld	s0,8(sp)
    80003830:	01010113          	addi	sp,sp,16
    80003834:	00008067          	ret

0000000080003838 <_Z8printIntiii>:

char digits[] = "0123456789ABCDEF";

void printInt(int xx, int base, int sgn)
{
    80003838:	fc010113          	addi	sp,sp,-64
    8000383c:	02113c23          	sd	ra,56(sp)
    80003840:	02813823          	sd	s0,48(sp)
    80003844:	02913423          	sd	s1,40(sp)
    80003848:	03213023          	sd	s2,32(sp)
    8000384c:	01313c23          	sd	s3,24(sp)
    80003850:	04010413          	addi	s0,sp,64
    80003854:	00050493          	mv	s1,a0
    80003858:	00058913          	mv	s2,a1
    8000385c:	00060993          	mv	s3,a2
    LOCK();
    80003860:	00100613          	li	a2,1
    80003864:	00000593          	li	a1,0
    80003868:	00009517          	auipc	a0,0x9
    8000386c:	68850513          	addi	a0,a0,1672 # 8000cef0 <lockPrint>
    80003870:	ffffd097          	auipc	ra,0xffffd
    80003874:	790080e7          	jalr	1936(ra) # 80001000 <copy_and_swap>
    80003878:	00050863          	beqz	a0,80003888 <_Z8printIntiii+0x50>
    8000387c:	00001097          	auipc	ra,0x1
    80003880:	1d0080e7          	jalr	464(ra) # 80004a4c <thread_dispatch>
    80003884:	fddff06f          	j	80003860 <_Z8printIntiii+0x28>
    char buf[16];
    int i, neg;
    uint x;

    neg = 0;
    if(sgn && xx < 0){
    80003888:	00098463          	beqz	s3,80003890 <_Z8printIntiii+0x58>
    8000388c:	0804c463          	bltz	s1,80003914 <_Z8printIntiii+0xdc>
        neg = 1;
        x = -xx;
    } else {
        x = xx;
    80003890:	0004851b          	sext.w	a0,s1
    neg = 0;
    80003894:	00000593          	li	a1,0
    }

    i = 0;
    80003898:	00000493          	li	s1,0
    do{
        buf[i++] = digits[x % base];
    8000389c:	0009079b          	sext.w	a5,s2
    800038a0:	0325773b          	remuw	a4,a0,s2
    800038a4:	00048613          	mv	a2,s1
    800038a8:	0014849b          	addiw	s1,s1,1
    800038ac:	02071693          	slli	a3,a4,0x20
    800038b0:	0206d693          	srli	a3,a3,0x20
    800038b4:	00009717          	auipc	a4,0x9
    800038b8:	46470713          	addi	a4,a4,1124 # 8000cd18 <digits>
    800038bc:	00d70733          	add	a4,a4,a3
    800038c0:	00074683          	lbu	a3,0(a4)
    800038c4:	fd040713          	addi	a4,s0,-48
    800038c8:	00c70733          	add	a4,a4,a2
    800038cc:	fed70823          	sb	a3,-16(a4)
    }while((x /= base) != 0);
    800038d0:	0005071b          	sext.w	a4,a0
    800038d4:	0325553b          	divuw	a0,a0,s2
    800038d8:	fcf772e3          	bgeu	a4,a5,8000389c <_Z8printIntiii+0x64>
    if(neg)
    800038dc:	00058c63          	beqz	a1,800038f4 <_Z8printIntiii+0xbc>
        buf[i++] = '-';
    800038e0:	fd040793          	addi	a5,s0,-48
    800038e4:	009784b3          	add	s1,a5,s1
    800038e8:	02d00793          	li	a5,45
    800038ec:	fef48823          	sb	a5,-16(s1)
    800038f0:	0026049b          	addiw	s1,a2,2

    while(--i >= 0)
    800038f4:	fff4849b          	addiw	s1,s1,-1
    800038f8:	0204c463          	bltz	s1,80003920 <_Z8printIntiii+0xe8>
        putc(buf[i]);
    800038fc:	fd040793          	addi	a5,s0,-48
    80003900:	009787b3          	add	a5,a5,s1
    80003904:	ff07c503          	lbu	a0,-16(a5)
    80003908:	00001097          	auipc	ra,0x1
    8000390c:	39c080e7          	jalr	924(ra) # 80004ca4 <putc>
    80003910:	fe5ff06f          	j	800038f4 <_Z8printIntiii+0xbc>
        x = -xx;
    80003914:	4090053b          	negw	a0,s1
        neg = 1;
    80003918:	00100593          	li	a1,1
        x = -xx;
    8000391c:	f7dff06f          	j	80003898 <_Z8printIntiii+0x60>

    UNLOCK();
    80003920:	00000613          	li	a2,0
    80003924:	00100593          	li	a1,1
    80003928:	00009517          	auipc	a0,0x9
    8000392c:	5c850513          	addi	a0,a0,1480 # 8000cef0 <lockPrint>
    80003930:	ffffd097          	auipc	ra,0xffffd
    80003934:	6d0080e7          	jalr	1744(ra) # 80001000 <copy_and_swap>
    80003938:	fe0514e3          	bnez	a0,80003920 <_Z8printIntiii+0xe8>
    8000393c:	03813083          	ld	ra,56(sp)
    80003940:	03013403          	ld	s0,48(sp)
    80003944:	02813483          	ld	s1,40(sp)
    80003948:	02013903          	ld	s2,32(sp)
    8000394c:	01813983          	ld	s3,24(sp)
    80003950:	04010113          	addi	sp,sp,64
    80003954:	00008067          	ret

0000000080003958 <_ZN9BufferCPPC1Ei>:
#include "buffer_CPP_API.hpp"

BufferCPP::BufferCPP(int _cap) : cap(_cap + 1), head(0), tail(0) {
    80003958:	fd010113          	addi	sp,sp,-48
    8000395c:	02113423          	sd	ra,40(sp)
    80003960:	02813023          	sd	s0,32(sp)
    80003964:	00913c23          	sd	s1,24(sp)
    80003968:	01213823          	sd	s2,16(sp)
    8000396c:	01313423          	sd	s3,8(sp)
    80003970:	03010413          	addi	s0,sp,48
    80003974:	00050493          	mv	s1,a0
    80003978:	00058913          	mv	s2,a1
    8000397c:	0015879b          	addiw	a5,a1,1
    80003980:	0007851b          	sext.w	a0,a5
    80003984:	00f4a023          	sw	a5,0(s1)
    80003988:	0004a823          	sw	zero,16(s1)
    8000398c:	0004aa23          	sw	zero,20(s1)
    buffer = (int *)mem_alloc(sizeof(int) * cap);
    80003990:	00251513          	slli	a0,a0,0x2
    80003994:	00001097          	auipc	ra,0x1
    80003998:	f74080e7          	jalr	-140(ra) # 80004908 <mem_alloc>
    8000399c:	00a4b423          	sd	a0,8(s1)
    itemAvailable = new Semaphore(0);
    800039a0:	01000513          	li	a0,16
    800039a4:	00003097          	auipc	ra,0x3
    800039a8:	fb4080e7          	jalr	-76(ra) # 80006958 <_Znwm>
    800039ac:	00050993          	mv	s3,a0
    800039b0:	00000593          	li	a1,0
    800039b4:	00003097          	auipc	ra,0x3
    800039b8:	160080e7          	jalr	352(ra) # 80006b14 <_ZN9SemaphoreC1Ej>
    800039bc:	0334b023          	sd	s3,32(s1)
    spaceAvailable = new Semaphore(_cap);
    800039c0:	01000513          	li	a0,16
    800039c4:	00003097          	auipc	ra,0x3
    800039c8:	f94080e7          	jalr	-108(ra) # 80006958 <_Znwm>
    800039cc:	00050993          	mv	s3,a0
    800039d0:	00090593          	mv	a1,s2
    800039d4:	00003097          	auipc	ra,0x3
    800039d8:	140080e7          	jalr	320(ra) # 80006b14 <_ZN9SemaphoreC1Ej>
    800039dc:	0134bc23          	sd	s3,24(s1)
    mutexHead = new Semaphore(1);
    800039e0:	01000513          	li	a0,16
    800039e4:	00003097          	auipc	ra,0x3
    800039e8:	f74080e7          	jalr	-140(ra) # 80006958 <_Znwm>
    800039ec:	00050913          	mv	s2,a0
    800039f0:	00100593          	li	a1,1
    800039f4:	00003097          	auipc	ra,0x3
    800039f8:	120080e7          	jalr	288(ra) # 80006b14 <_ZN9SemaphoreC1Ej>
    800039fc:	0324b423          	sd	s2,40(s1)
    mutexTail = new Semaphore(1);
    80003a00:	01000513          	li	a0,16
    80003a04:	00003097          	auipc	ra,0x3
    80003a08:	f54080e7          	jalr	-172(ra) # 80006958 <_Znwm>
    80003a0c:	00050913          	mv	s2,a0
    80003a10:	00100593          	li	a1,1
    80003a14:	00003097          	auipc	ra,0x3
    80003a18:	100080e7          	jalr	256(ra) # 80006b14 <_ZN9SemaphoreC1Ej>
    80003a1c:	0324b823          	sd	s2,48(s1)
}
    80003a20:	02813083          	ld	ra,40(sp)
    80003a24:	02013403          	ld	s0,32(sp)
    80003a28:	01813483          	ld	s1,24(sp)
    80003a2c:	01013903          	ld	s2,16(sp)
    80003a30:	00813983          	ld	s3,8(sp)
    80003a34:	03010113          	addi	sp,sp,48
    80003a38:	00008067          	ret
    80003a3c:	00050493          	mv	s1,a0
    itemAvailable = new Semaphore(0);
    80003a40:	00098513          	mv	a0,s3
    80003a44:	00003097          	auipc	ra,0x3
    80003a48:	f3c080e7          	jalr	-196(ra) # 80006980 <_ZdlPv>
    80003a4c:	00048513          	mv	a0,s1
    80003a50:	0000a097          	auipc	ra,0xa
    80003a54:	5f8080e7          	jalr	1528(ra) # 8000e048 <_Unwind_Resume>
    80003a58:	00050493          	mv	s1,a0
    spaceAvailable = new Semaphore(_cap);
    80003a5c:	00098513          	mv	a0,s3
    80003a60:	00003097          	auipc	ra,0x3
    80003a64:	f20080e7          	jalr	-224(ra) # 80006980 <_ZdlPv>
    80003a68:	00048513          	mv	a0,s1
    80003a6c:	0000a097          	auipc	ra,0xa
    80003a70:	5dc080e7          	jalr	1500(ra) # 8000e048 <_Unwind_Resume>
    80003a74:	00050493          	mv	s1,a0
    mutexHead = new Semaphore(1);
    80003a78:	00090513          	mv	a0,s2
    80003a7c:	00003097          	auipc	ra,0x3
    80003a80:	f04080e7          	jalr	-252(ra) # 80006980 <_ZdlPv>
    80003a84:	00048513          	mv	a0,s1
    80003a88:	0000a097          	auipc	ra,0xa
    80003a8c:	5c0080e7          	jalr	1472(ra) # 8000e048 <_Unwind_Resume>
    80003a90:	00050493          	mv	s1,a0
    mutexTail = new Semaphore(1);
    80003a94:	00090513          	mv	a0,s2
    80003a98:	00003097          	auipc	ra,0x3
    80003a9c:	ee8080e7          	jalr	-280(ra) # 80006980 <_ZdlPv>
    80003aa0:	00048513          	mv	a0,s1
    80003aa4:	0000a097          	auipc	ra,0xa
    80003aa8:	5a4080e7          	jalr	1444(ra) # 8000e048 <_Unwind_Resume>

0000000080003aac <_ZN9BufferCPP3putEi>:
    delete mutexTail;
    delete mutexHead;

}

void BufferCPP::put(int val) {
    80003aac:	fe010113          	addi	sp,sp,-32
    80003ab0:	00113c23          	sd	ra,24(sp)
    80003ab4:	00813823          	sd	s0,16(sp)
    80003ab8:	00913423          	sd	s1,8(sp)
    80003abc:	01213023          	sd	s2,0(sp)
    80003ac0:	02010413          	addi	s0,sp,32
    80003ac4:	00050493          	mv	s1,a0
    80003ac8:	00058913          	mv	s2,a1
    spaceAvailable->wait();
    80003acc:	01853503          	ld	a0,24(a0)
    80003ad0:	00003097          	auipc	ra,0x3
    80003ad4:	080080e7          	jalr	128(ra) # 80006b50 <_ZN9Semaphore4waitEv>

    mutexTail->wait();
    80003ad8:	0304b503          	ld	a0,48(s1)
    80003adc:	00003097          	auipc	ra,0x3
    80003ae0:	074080e7          	jalr	116(ra) # 80006b50 <_ZN9Semaphore4waitEv>
    buffer[tail] = val;
    80003ae4:	0084b783          	ld	a5,8(s1)
    80003ae8:	0144a703          	lw	a4,20(s1)
    80003aec:	00271713          	slli	a4,a4,0x2
    80003af0:	00e787b3          	add	a5,a5,a4
    80003af4:	0127a023          	sw	s2,0(a5)
    tail = (tail + 1) % cap;
    80003af8:	0144a783          	lw	a5,20(s1)
    80003afc:	0017879b          	addiw	a5,a5,1
    80003b00:	0004a703          	lw	a4,0(s1)
    80003b04:	02e7e7bb          	remw	a5,a5,a4
    80003b08:	00f4aa23          	sw	a5,20(s1)
    mutexTail->signal();
    80003b0c:	0304b503          	ld	a0,48(s1)
    80003b10:	00003097          	auipc	ra,0x3
    80003b14:	06c080e7          	jalr	108(ra) # 80006b7c <_ZN9Semaphore6signalEv>

    itemAvailable->signal();
    80003b18:	0204b503          	ld	a0,32(s1)
    80003b1c:	00003097          	auipc	ra,0x3
    80003b20:	060080e7          	jalr	96(ra) # 80006b7c <_ZN9Semaphore6signalEv>

}
    80003b24:	01813083          	ld	ra,24(sp)
    80003b28:	01013403          	ld	s0,16(sp)
    80003b2c:	00813483          	ld	s1,8(sp)
    80003b30:	00013903          	ld	s2,0(sp)
    80003b34:	02010113          	addi	sp,sp,32
    80003b38:	00008067          	ret

0000000080003b3c <_ZN9BufferCPP3getEv>:

int BufferCPP::get() {
    80003b3c:	fe010113          	addi	sp,sp,-32
    80003b40:	00113c23          	sd	ra,24(sp)
    80003b44:	00813823          	sd	s0,16(sp)
    80003b48:	00913423          	sd	s1,8(sp)
    80003b4c:	01213023          	sd	s2,0(sp)
    80003b50:	02010413          	addi	s0,sp,32
    80003b54:	00050493          	mv	s1,a0
    itemAvailable->wait();
    80003b58:	02053503          	ld	a0,32(a0)
    80003b5c:	00003097          	auipc	ra,0x3
    80003b60:	ff4080e7          	jalr	-12(ra) # 80006b50 <_ZN9Semaphore4waitEv>

    mutexHead->wait();
    80003b64:	0284b503          	ld	a0,40(s1)
    80003b68:	00003097          	auipc	ra,0x3
    80003b6c:	fe8080e7          	jalr	-24(ra) # 80006b50 <_ZN9Semaphore4waitEv>

    int ret = buffer[head];
    80003b70:	0084b703          	ld	a4,8(s1)
    80003b74:	0104a783          	lw	a5,16(s1)
    80003b78:	00279693          	slli	a3,a5,0x2
    80003b7c:	00d70733          	add	a4,a4,a3
    80003b80:	00072903          	lw	s2,0(a4)
    head = (head + 1) % cap;
    80003b84:	0017879b          	addiw	a5,a5,1
    80003b88:	0004a703          	lw	a4,0(s1)
    80003b8c:	02e7e7bb          	remw	a5,a5,a4
    80003b90:	00f4a823          	sw	a5,16(s1)
    mutexHead->signal();
    80003b94:	0284b503          	ld	a0,40(s1)
    80003b98:	00003097          	auipc	ra,0x3
    80003b9c:	fe4080e7          	jalr	-28(ra) # 80006b7c <_ZN9Semaphore6signalEv>

    spaceAvailable->signal();
    80003ba0:	0184b503          	ld	a0,24(s1)
    80003ba4:	00003097          	auipc	ra,0x3
    80003ba8:	fd8080e7          	jalr	-40(ra) # 80006b7c <_ZN9Semaphore6signalEv>

    return ret;
}
    80003bac:	00090513          	mv	a0,s2
    80003bb0:	01813083          	ld	ra,24(sp)
    80003bb4:	01013403          	ld	s0,16(sp)
    80003bb8:	00813483          	ld	s1,8(sp)
    80003bbc:	00013903          	ld	s2,0(sp)
    80003bc0:	02010113          	addi	sp,sp,32
    80003bc4:	00008067          	ret

0000000080003bc8 <_ZN9BufferCPP6getCntEv>:

int BufferCPP::getCnt() {
    80003bc8:	fe010113          	addi	sp,sp,-32
    80003bcc:	00113c23          	sd	ra,24(sp)
    80003bd0:	00813823          	sd	s0,16(sp)
    80003bd4:	00913423          	sd	s1,8(sp)
    80003bd8:	01213023          	sd	s2,0(sp)
    80003bdc:	02010413          	addi	s0,sp,32
    80003be0:	00050493          	mv	s1,a0
    int ret;

    mutexHead->wait();
    80003be4:	02853503          	ld	a0,40(a0)
    80003be8:	00003097          	auipc	ra,0x3
    80003bec:	f68080e7          	jalr	-152(ra) # 80006b50 <_ZN9Semaphore4waitEv>
    mutexTail->wait();
    80003bf0:	0304b503          	ld	a0,48(s1)
    80003bf4:	00003097          	auipc	ra,0x3
    80003bf8:	f5c080e7          	jalr	-164(ra) # 80006b50 <_ZN9Semaphore4waitEv>

    if (tail >= head) {
    80003bfc:	0144a783          	lw	a5,20(s1)
    80003c00:	0104a903          	lw	s2,16(s1)
    80003c04:	0327ce63          	blt	a5,s2,80003c40 <_ZN9BufferCPP6getCntEv+0x78>
        ret = tail - head;
    80003c08:	4127893b          	subw	s2,a5,s2
    } else {
        ret = cap - head + tail;
    }

    mutexTail->signal();
    80003c0c:	0304b503          	ld	a0,48(s1)
    80003c10:	00003097          	auipc	ra,0x3
    80003c14:	f6c080e7          	jalr	-148(ra) # 80006b7c <_ZN9Semaphore6signalEv>
    mutexHead->signal();
    80003c18:	0284b503          	ld	a0,40(s1)
    80003c1c:	00003097          	auipc	ra,0x3
    80003c20:	f60080e7          	jalr	-160(ra) # 80006b7c <_ZN9Semaphore6signalEv>

    return ret;
}
    80003c24:	00090513          	mv	a0,s2
    80003c28:	01813083          	ld	ra,24(sp)
    80003c2c:	01013403          	ld	s0,16(sp)
    80003c30:	00813483          	ld	s1,8(sp)
    80003c34:	00013903          	ld	s2,0(sp)
    80003c38:	02010113          	addi	sp,sp,32
    80003c3c:	00008067          	ret
        ret = cap - head + tail;
    80003c40:	0004a703          	lw	a4,0(s1)
    80003c44:	4127093b          	subw	s2,a4,s2
    80003c48:	00f9093b          	addw	s2,s2,a5
    80003c4c:	fc1ff06f          	j	80003c0c <_ZN9BufferCPP6getCntEv+0x44>

0000000080003c50 <_ZN9BufferCPPD1Ev>:
BufferCPP::~BufferCPP() {
    80003c50:	fe010113          	addi	sp,sp,-32
    80003c54:	00113c23          	sd	ra,24(sp)
    80003c58:	00813823          	sd	s0,16(sp)
    80003c5c:	00913423          	sd	s1,8(sp)
    80003c60:	02010413          	addi	s0,sp,32
    80003c64:	00050493          	mv	s1,a0
    Console::putc('\n');
    80003c68:	00a00513          	li	a0,10
    80003c6c:	00003097          	auipc	ra,0x3
    80003c70:	00c080e7          	jalr	12(ra) # 80006c78 <_ZN7Console4putcEc>
    printString("Buffer deleted!\n");
    80003c74:	00006517          	auipc	a0,0x6
    80003c78:	58450513          	addi	a0,a0,1412 # 8000a1f8 <CONSOLE_STATUS+0x1e8>
    80003c7c:	00000097          	auipc	ra,0x0
    80003c80:	a0c080e7          	jalr	-1524(ra) # 80003688 <_Z11printStringPKc>
    while (getCnt()) {
    80003c84:	00048513          	mv	a0,s1
    80003c88:	00000097          	auipc	ra,0x0
    80003c8c:	f40080e7          	jalr	-192(ra) # 80003bc8 <_ZN9BufferCPP6getCntEv>
    80003c90:	02050c63          	beqz	a0,80003cc8 <_ZN9BufferCPPD1Ev+0x78>
        char ch = buffer[head];
    80003c94:	0084b783          	ld	a5,8(s1)
    80003c98:	0104a703          	lw	a4,16(s1)
    80003c9c:	00271713          	slli	a4,a4,0x2
    80003ca0:	00e787b3          	add	a5,a5,a4
        Console::putc(ch);
    80003ca4:	0007c503          	lbu	a0,0(a5)
    80003ca8:	00003097          	auipc	ra,0x3
    80003cac:	fd0080e7          	jalr	-48(ra) # 80006c78 <_ZN7Console4putcEc>
        head = (head + 1) % cap;
    80003cb0:	0104a783          	lw	a5,16(s1)
    80003cb4:	0017879b          	addiw	a5,a5,1
    80003cb8:	0004a703          	lw	a4,0(s1)
    80003cbc:	02e7e7bb          	remw	a5,a5,a4
    80003cc0:	00f4a823          	sw	a5,16(s1)
    while (getCnt()) {
    80003cc4:	fc1ff06f          	j	80003c84 <_ZN9BufferCPPD1Ev+0x34>
    Console::putc('!');
    80003cc8:	02100513          	li	a0,33
    80003ccc:	00003097          	auipc	ra,0x3
    80003cd0:	fac080e7          	jalr	-84(ra) # 80006c78 <_ZN7Console4putcEc>
    Console::putc('\n');
    80003cd4:	00a00513          	li	a0,10
    80003cd8:	00003097          	auipc	ra,0x3
    80003cdc:	fa0080e7          	jalr	-96(ra) # 80006c78 <_ZN7Console4putcEc>
    mem_free(buffer);
    80003ce0:	0084b503          	ld	a0,8(s1)
    80003ce4:	00001097          	auipc	ra,0x1
    80003ce8:	c6c080e7          	jalr	-916(ra) # 80004950 <mem_free>
    delete itemAvailable;
    80003cec:	0204b503          	ld	a0,32(s1)
    80003cf0:	00050863          	beqz	a0,80003d00 <_ZN9BufferCPPD1Ev+0xb0>
    80003cf4:	00053783          	ld	a5,0(a0)
    80003cf8:	0087b783          	ld	a5,8(a5)
    80003cfc:	000780e7          	jalr	a5
    delete spaceAvailable;
    80003d00:	0184b503          	ld	a0,24(s1)
    80003d04:	00050863          	beqz	a0,80003d14 <_ZN9BufferCPPD1Ev+0xc4>
    80003d08:	00053783          	ld	a5,0(a0)
    80003d0c:	0087b783          	ld	a5,8(a5)
    80003d10:	000780e7          	jalr	a5
    delete mutexTail;
    80003d14:	0304b503          	ld	a0,48(s1)
    80003d18:	00050863          	beqz	a0,80003d28 <_ZN9BufferCPPD1Ev+0xd8>
    80003d1c:	00053783          	ld	a5,0(a0)
    80003d20:	0087b783          	ld	a5,8(a5)
    80003d24:	000780e7          	jalr	a5
    delete mutexHead;
    80003d28:	0284b503          	ld	a0,40(s1)
    80003d2c:	00050863          	beqz	a0,80003d3c <_ZN9BufferCPPD1Ev+0xec>
    80003d30:	00053783          	ld	a5,0(a0)
    80003d34:	0087b783          	ld	a5,8(a5)
    80003d38:	000780e7          	jalr	a5
}
    80003d3c:	01813083          	ld	ra,24(sp)
    80003d40:	01013403          	ld	s0,16(sp)
    80003d44:	00813483          	ld	s1,8(sp)
    80003d48:	02010113          	addi	sp,sp,32
    80003d4c:	00008067          	ret

0000000080003d50 <_Z8userMainv>:
#include "ConsumerProducer_CPP_API_test.hpp"
#include "System_Mode_test.hpp"

#endif

void userMain() {
    80003d50:	fe010113          	addi	sp,sp,-32
    80003d54:	00113c23          	sd	ra,24(sp)
    80003d58:	00813823          	sd	s0,16(sp)
    80003d5c:	00913423          	sd	s1,8(sp)
    80003d60:	02010413          	addi	s0,sp,32
    printString("Unesite broj testa? [1-7]\n");
    80003d64:	00006517          	auipc	a0,0x6
    80003d68:	4ac50513          	addi	a0,a0,1196 # 8000a210 <CONSOLE_STATUS+0x200>
    80003d6c:	00000097          	auipc	ra,0x0
    80003d70:	91c080e7          	jalr	-1764(ra) # 80003688 <_Z11printStringPKc>
    int test = getc() - '0';
    80003d74:	00001097          	auipc	ra,0x1
    80003d78:	ef0080e7          	jalr	-272(ra) # 80004c64 <getc>
    80003d7c:	fd05049b          	addiw	s1,a0,-48
    getc(); // Enter posle broja
    80003d80:	00001097          	auipc	ra,0x1
    80003d84:	ee4080e7          	jalr	-284(ra) # 80004c64 <getc>
            printString("Nije navedeno da je zadatak 4 implementiran\n");
            return;
        }
    }

    switch (test) {
    80003d88:	00700793          	li	a5,7
    80003d8c:	1097e263          	bltu	a5,s1,80003e90 <_Z8userMainv+0x140>
    80003d90:	00249493          	slli	s1,s1,0x2
    80003d94:	00006717          	auipc	a4,0x6
    80003d98:	6d470713          	addi	a4,a4,1748 # 8000a468 <CONSOLE_STATUS+0x458>
    80003d9c:	00e484b3          	add	s1,s1,a4
    80003da0:	0004a783          	lw	a5,0(s1)
    80003da4:	00e787b3          	add	a5,a5,a4
    80003da8:	00078067          	jr	a5
        case 1:
#if LEVEL_2_IMPLEMENTED == 1
            Threads_C_API_test();
    80003dac:	fffff097          	auipc	ra,0xfffff
    80003db0:	f54080e7          	jalr	-172(ra) # 80002d00 <_Z18Threads_C_API_testv>
            printString("TEST 1 (zadatak 2, niti C API i sinhrona promena konteksta)\n");
    80003db4:	00006517          	auipc	a0,0x6
    80003db8:	47c50513          	addi	a0,a0,1148 # 8000a230 <CONSOLE_STATUS+0x220>
    80003dbc:	00000097          	auipc	ra,0x0
    80003dc0:	8cc080e7          	jalr	-1844(ra) # 80003688 <_Z11printStringPKc>
#endif
            break;
        default:
            printString("Niste uneli odgovarajuci broj za test\n");
    }
    80003dc4:	01813083          	ld	ra,24(sp)
    80003dc8:	01013403          	ld	s0,16(sp)
    80003dcc:	00813483          	ld	s1,8(sp)
    80003dd0:	02010113          	addi	sp,sp,32
    80003dd4:	00008067          	ret
            Threads_CPP_API_test();
    80003dd8:	ffffe097          	auipc	ra,0xffffe
    80003ddc:	e08080e7          	jalr	-504(ra) # 80001be0 <_Z20Threads_CPP_API_testv>
            printString("TEST 2 (zadatak 2., niti CPP API i sinhrona promena konteksta)\n");
    80003de0:	00006517          	auipc	a0,0x6
    80003de4:	49050513          	addi	a0,a0,1168 # 8000a270 <CONSOLE_STATUS+0x260>
    80003de8:	00000097          	auipc	ra,0x0
    80003dec:	8a0080e7          	jalr	-1888(ra) # 80003688 <_Z11printStringPKc>
            break;
    80003df0:	fd5ff06f          	j	80003dc4 <_Z8userMainv+0x74>
            producerConsumer_C_API();
    80003df4:	ffffd097          	auipc	ra,0xffffd
    80003df8:	640080e7          	jalr	1600(ra) # 80001434 <_Z22producerConsumer_C_APIv>
            printString("TEST 3 (zadatak 3., kompletan C API sa semaforima, sinhrona promena konteksta)\n");
    80003dfc:	00006517          	auipc	a0,0x6
    80003e00:	4b450513          	addi	a0,a0,1204 # 8000a2b0 <CONSOLE_STATUS+0x2a0>
    80003e04:	00000097          	auipc	ra,0x0
    80003e08:	884080e7          	jalr	-1916(ra) # 80003688 <_Z11printStringPKc>
            break;
    80003e0c:	fb9ff06f          	j	80003dc4 <_Z8userMainv+0x74>
            producerConsumer_CPP_Sync_API();
    80003e10:	fffff097          	auipc	ra,0xfffff
    80003e14:	234080e7          	jalr	564(ra) # 80003044 <_Z29producerConsumer_CPP_Sync_APIv>
            printString("TEST 4 (zadatak 3., kompletan CPP API sa semaforima, sinhrona promena konteksta)\n");
    80003e18:	00006517          	auipc	a0,0x6
    80003e1c:	4e850513          	addi	a0,a0,1256 # 8000a300 <CONSOLE_STATUS+0x2f0>
    80003e20:	00000097          	auipc	ra,0x0
    80003e24:	868080e7          	jalr	-1944(ra) # 80003688 <_Z11printStringPKc>
            break;
    80003e28:	f9dff06f          	j	80003dc4 <_Z8userMainv+0x74>
            testSleeping();
    80003e2c:	00000097          	auipc	ra,0x0
    80003e30:	11c080e7          	jalr	284(ra) # 80003f48 <_Z12testSleepingv>
            printString("TEST 5 (zadatak 4., thread_sleep test C API)\n");
    80003e34:	00006517          	auipc	a0,0x6
    80003e38:	52450513          	addi	a0,a0,1316 # 8000a358 <CONSOLE_STATUS+0x348>
    80003e3c:	00000097          	auipc	ra,0x0
    80003e40:	84c080e7          	jalr	-1972(ra) # 80003688 <_Z11printStringPKc>
            break;
    80003e44:	f81ff06f          	j	80003dc4 <_Z8userMainv+0x74>
            testConsumerProducer();
    80003e48:	ffffe097          	auipc	ra,0xffffe
    80003e4c:	258080e7          	jalr	600(ra) # 800020a0 <_Z20testConsumerProducerv>
            printString("TEST 6 (zadatak 4. CPP API i asinhrona promena konteksta)\n");
    80003e50:	00006517          	auipc	a0,0x6
    80003e54:	53850513          	addi	a0,a0,1336 # 8000a388 <CONSOLE_STATUS+0x378>
    80003e58:	00000097          	auipc	ra,0x0
    80003e5c:	830080e7          	jalr	-2000(ra) # 80003688 <_Z11printStringPKc>
            break;
    80003e60:	f65ff06f          	j	80003dc4 <_Z8userMainv+0x74>
            System_Mode_test();
    80003e64:	00000097          	auipc	ra,0x0
    80003e68:	658080e7          	jalr	1624(ra) # 800044bc <_Z16System_Mode_testv>
            printString("Test se nije uspesno zavrsio\n");
    80003e6c:	00006517          	auipc	a0,0x6
    80003e70:	55c50513          	addi	a0,a0,1372 # 8000a3c8 <CONSOLE_STATUS+0x3b8>
    80003e74:	00000097          	auipc	ra,0x0
    80003e78:	814080e7          	jalr	-2028(ra) # 80003688 <_Z11printStringPKc>
            printString("TEST 7 (zadatak 2., testiranje da li se korisnicki kod izvrsava u korisnickom rezimu)\n");
    80003e7c:	00006517          	auipc	a0,0x6
    80003e80:	56c50513          	addi	a0,a0,1388 # 8000a3e8 <CONSOLE_STATUS+0x3d8>
    80003e84:	00000097          	auipc	ra,0x0
    80003e88:	804080e7          	jalr	-2044(ra) # 80003688 <_Z11printStringPKc>
            break;
    80003e8c:	f39ff06f          	j	80003dc4 <_Z8userMainv+0x74>
            printString("Niste uneli odgovarajuci broj za test\n");
    80003e90:	00006517          	auipc	a0,0x6
    80003e94:	5b050513          	addi	a0,a0,1456 # 8000a440 <CONSOLE_STATUS+0x430>
    80003e98:	fffff097          	auipc	ra,0xfffff
    80003e9c:	7f0080e7          	jalr	2032(ra) # 80003688 <_Z11printStringPKc>
    80003ea0:	f25ff06f          	j	80003dc4 <_Z8userMainv+0x74>

0000000080003ea4 <_ZL9sleepyRunPv>:

#include "printing.hpp"

static volatile bool finished[2];

static void sleepyRun(void *arg) {
    80003ea4:	fe010113          	addi	sp,sp,-32
    80003ea8:	00113c23          	sd	ra,24(sp)
    80003eac:	00813823          	sd	s0,16(sp)
    80003eb0:	00913423          	sd	s1,8(sp)
    80003eb4:	01213023          	sd	s2,0(sp)
    80003eb8:	02010413          	addi	s0,sp,32
    time_t sleep_time = *((time_t *) arg);
    80003ebc:	00053903          	ld	s2,0(a0)
    int i = 6;
    80003ec0:	00600493          	li	s1,6
    while (--i > 0) {
    80003ec4:	fff4849b          	addiw	s1,s1,-1
    80003ec8:	04905463          	blez	s1,80003f10 <_ZL9sleepyRunPv+0x6c>

        printString("Hello ");
    80003ecc:	00006517          	auipc	a0,0x6
    80003ed0:	5bc50513          	addi	a0,a0,1468 # 8000a488 <CONSOLE_STATUS+0x478>
    80003ed4:	fffff097          	auipc	ra,0xfffff
    80003ed8:	7b4080e7          	jalr	1972(ra) # 80003688 <_Z11printStringPKc>
        printInt(sleep_time);
    80003edc:	00000613          	li	a2,0
    80003ee0:	00a00593          	li	a1,10
    80003ee4:	0009051b          	sext.w	a0,s2
    80003ee8:	00000097          	auipc	ra,0x0
    80003eec:	950080e7          	jalr	-1712(ra) # 80003838 <_Z8printIntiii>
        printString(" !\n");
    80003ef0:	00006517          	auipc	a0,0x6
    80003ef4:	5a050513          	addi	a0,a0,1440 # 8000a490 <CONSOLE_STATUS+0x480>
    80003ef8:	fffff097          	auipc	ra,0xfffff
    80003efc:	790080e7          	jalr	1936(ra) # 80003688 <_Z11printStringPKc>
        time_sleep(sleep_time);
    80003f00:	00090513          	mv	a0,s2
    80003f04:	00001097          	auipc	ra,0x1
    80003f08:	d14080e7          	jalr	-748(ra) # 80004c18 <time_sleep>
    while (--i > 0) {
    80003f0c:	fb9ff06f          	j	80003ec4 <_ZL9sleepyRunPv+0x20>
    }
    finished[sleep_time/10-1] = true;
    80003f10:	00a00793          	li	a5,10
    80003f14:	02f95933          	divu	s2,s2,a5
    80003f18:	fff90913          	addi	s2,s2,-1
    80003f1c:	00009797          	auipc	a5,0x9
    80003f20:	fdc78793          	addi	a5,a5,-36 # 8000cef8 <_ZL8finished>
    80003f24:	01278933          	add	s2,a5,s2
    80003f28:	00100793          	li	a5,1
    80003f2c:	00f90023          	sb	a5,0(s2)
}
    80003f30:	01813083          	ld	ra,24(sp)
    80003f34:	01013403          	ld	s0,16(sp)
    80003f38:	00813483          	ld	s1,8(sp)
    80003f3c:	00013903          	ld	s2,0(sp)
    80003f40:	02010113          	addi	sp,sp,32
    80003f44:	00008067          	ret

0000000080003f48 <_Z12testSleepingv>:

void testSleeping() {
    80003f48:	fc010113          	addi	sp,sp,-64
    80003f4c:	02113c23          	sd	ra,56(sp)
    80003f50:	02813823          	sd	s0,48(sp)
    80003f54:	02913423          	sd	s1,40(sp)
    80003f58:	04010413          	addi	s0,sp,64
    const int sleepy_thread_count = 2;
    time_t sleep_times[sleepy_thread_count] = {10, 20};
    80003f5c:	00a00793          	li	a5,10
    80003f60:	fcf43823          	sd	a5,-48(s0)
    80003f64:	01400793          	li	a5,20
    80003f68:	fcf43c23          	sd	a5,-40(s0)
    thread_t sleepyThread[sleepy_thread_count];

    for (int i = 0; i < sleepy_thread_count; i++) {
    80003f6c:	00000493          	li	s1,0
    80003f70:	02c0006f          	j	80003f9c <_Z12testSleepingv+0x54>
        thread_create(&sleepyThread[i], sleepyRun, sleep_times + i);
    80003f74:	00349793          	slli	a5,s1,0x3
    80003f78:	fd040613          	addi	a2,s0,-48
    80003f7c:	00f60633          	add	a2,a2,a5
    80003f80:	00000597          	auipc	a1,0x0
    80003f84:	f2458593          	addi	a1,a1,-220 # 80003ea4 <_ZL9sleepyRunPv>
    80003f88:	fc040513          	addi	a0,s0,-64
    80003f8c:	00f50533          	add	a0,a0,a5
    80003f90:	00001097          	auipc	ra,0x1
    80003f94:	a00080e7          	jalr	-1536(ra) # 80004990 <thread_create>
    for (int i = 0; i < sleepy_thread_count; i++) {
    80003f98:	0014849b          	addiw	s1,s1,1
    80003f9c:	00100793          	li	a5,1
    80003fa0:	fc97dae3          	bge	a5,s1,80003f74 <_Z12testSleepingv+0x2c>
    }

    while (!(finished[0] && finished[1])) {}
    80003fa4:	00009797          	auipc	a5,0x9
    80003fa8:	f547c783          	lbu	a5,-172(a5) # 8000cef8 <_ZL8finished>
    80003fac:	fe078ce3          	beqz	a5,80003fa4 <_Z12testSleepingv+0x5c>
    80003fb0:	00009797          	auipc	a5,0x9
    80003fb4:	f497c783          	lbu	a5,-183(a5) # 8000cef9 <_ZL8finished+0x1>
    80003fb8:	fe0786e3          	beqz	a5,80003fa4 <_Z12testSleepingv+0x5c>
}
    80003fbc:	03813083          	ld	ra,56(sp)
    80003fc0:	03013403          	ld	s0,48(sp)
    80003fc4:	02813483          	ld	s1,40(sp)
    80003fc8:	04010113          	addi	sp,sp,64
    80003fcc:	00008067          	ret

0000000080003fd0 <_ZL9fibonaccim>:
static volatile bool finishedA = false;
static volatile bool finishedB = false;
static volatile bool finishedC = false;
static volatile bool finishedD = false;

static uint64 fibonacci(uint64 n) {
    80003fd0:	fe010113          	addi	sp,sp,-32
    80003fd4:	00113c23          	sd	ra,24(sp)
    80003fd8:	00813823          	sd	s0,16(sp)
    80003fdc:	00913423          	sd	s1,8(sp)
    80003fe0:	01213023          	sd	s2,0(sp)
    80003fe4:	02010413          	addi	s0,sp,32
    80003fe8:	00050493          	mv	s1,a0
    if (n == 0 || n == 1) { return n; }
    80003fec:	00100793          	li	a5,1
    80003ff0:	02a7f863          	bgeu	a5,a0,80004020 <_ZL9fibonaccim+0x50>
    if (n % 10 == 0) { thread_dispatch(); }
    80003ff4:	00a00793          	li	a5,10
    80003ff8:	02f577b3          	remu	a5,a0,a5
    80003ffc:	02078e63          	beqz	a5,80004038 <_ZL9fibonaccim+0x68>
    return fibonacci(n - 1) + fibonacci(n - 2);
    80004000:	fff48513          	addi	a0,s1,-1
    80004004:	00000097          	auipc	ra,0x0
    80004008:	fcc080e7          	jalr	-52(ra) # 80003fd0 <_ZL9fibonaccim>
    8000400c:	00050913          	mv	s2,a0
    80004010:	ffe48513          	addi	a0,s1,-2
    80004014:	00000097          	auipc	ra,0x0
    80004018:	fbc080e7          	jalr	-68(ra) # 80003fd0 <_ZL9fibonaccim>
    8000401c:	00a90533          	add	a0,s2,a0
}
    80004020:	01813083          	ld	ra,24(sp)
    80004024:	01013403          	ld	s0,16(sp)
    80004028:	00813483          	ld	s1,8(sp)
    8000402c:	00013903          	ld	s2,0(sp)
    80004030:	02010113          	addi	sp,sp,32
    80004034:	00008067          	ret
    if (n % 10 == 0) { thread_dispatch(); }
    80004038:	00001097          	auipc	ra,0x1
    8000403c:	a14080e7          	jalr	-1516(ra) # 80004a4c <thread_dispatch>
    80004040:	fc1ff06f          	j	80004000 <_ZL9fibonaccim+0x30>

0000000080004044 <_ZL11workerBodyDPv>:
    printString("A finished!\n");
    finishedC = true;
    thread_dispatch();
}

static void workerBodyD(void* arg) {
    80004044:	fe010113          	addi	sp,sp,-32
    80004048:	00113c23          	sd	ra,24(sp)
    8000404c:	00813823          	sd	s0,16(sp)
    80004050:	00913423          	sd	s1,8(sp)
    80004054:	01213023          	sd	s2,0(sp)
    80004058:	02010413          	addi	s0,sp,32
    uint8 i = 10;
    8000405c:	00a00493          	li	s1,10
    80004060:	0400006f          	j	800040a0 <_ZL11workerBodyDPv+0x5c>
    for (; i < 13; i++) {
        printString("D: i="); printInt(i); printString("\n");
    80004064:	00006517          	auipc	a0,0x6
    80004068:	0fc50513          	addi	a0,a0,252 # 8000a160 <CONSOLE_STATUS+0x150>
    8000406c:	fffff097          	auipc	ra,0xfffff
    80004070:	61c080e7          	jalr	1564(ra) # 80003688 <_Z11printStringPKc>
    80004074:	00000613          	li	a2,0
    80004078:	00a00593          	li	a1,10
    8000407c:	00048513          	mv	a0,s1
    80004080:	fffff097          	auipc	ra,0xfffff
    80004084:	7b8080e7          	jalr	1976(ra) # 80003838 <_Z8printIntiii>
    80004088:	00006517          	auipc	a0,0x6
    8000408c:	2c850513          	addi	a0,a0,712 # 8000a350 <CONSOLE_STATUS+0x340>
    80004090:	fffff097          	auipc	ra,0xfffff
    80004094:	5f8080e7          	jalr	1528(ra) # 80003688 <_Z11printStringPKc>
    for (; i < 13; i++) {
    80004098:	0014849b          	addiw	s1,s1,1
    8000409c:	0ff4f493          	andi	s1,s1,255
    800040a0:	00c00793          	li	a5,12
    800040a4:	fc97f0e3          	bgeu	a5,s1,80004064 <_ZL11workerBodyDPv+0x20>
    }

    printString("D: dispatch\n");
    800040a8:	00006517          	auipc	a0,0x6
    800040ac:	0c050513          	addi	a0,a0,192 # 8000a168 <CONSOLE_STATUS+0x158>
    800040b0:	fffff097          	auipc	ra,0xfffff
    800040b4:	5d8080e7          	jalr	1496(ra) # 80003688 <_Z11printStringPKc>
    __asm__ ("li t1, 5");
    800040b8:	00500313          	li	t1,5
    thread_dispatch();
    800040bc:	00001097          	auipc	ra,0x1
    800040c0:	990080e7          	jalr	-1648(ra) # 80004a4c <thread_dispatch>

    uint64 result = fibonacci(16);
    800040c4:	01000513          	li	a0,16
    800040c8:	00000097          	auipc	ra,0x0
    800040cc:	f08080e7          	jalr	-248(ra) # 80003fd0 <_ZL9fibonaccim>
    800040d0:	00050913          	mv	s2,a0
    printString("D: fibonaci="); printInt(result); printString("\n");
    800040d4:	00006517          	auipc	a0,0x6
    800040d8:	0a450513          	addi	a0,a0,164 # 8000a178 <CONSOLE_STATUS+0x168>
    800040dc:	fffff097          	auipc	ra,0xfffff
    800040e0:	5ac080e7          	jalr	1452(ra) # 80003688 <_Z11printStringPKc>
    800040e4:	00000613          	li	a2,0
    800040e8:	00a00593          	li	a1,10
    800040ec:	0009051b          	sext.w	a0,s2
    800040f0:	fffff097          	auipc	ra,0xfffff
    800040f4:	748080e7          	jalr	1864(ra) # 80003838 <_Z8printIntiii>
    800040f8:	00006517          	auipc	a0,0x6
    800040fc:	25850513          	addi	a0,a0,600 # 8000a350 <CONSOLE_STATUS+0x340>
    80004100:	fffff097          	auipc	ra,0xfffff
    80004104:	588080e7          	jalr	1416(ra) # 80003688 <_Z11printStringPKc>
    80004108:	0400006f          	j	80004148 <_ZL11workerBodyDPv+0x104>

    for (; i < 16; i++) {
        printString("D: i="); printInt(i); printString("\n");
    8000410c:	00006517          	auipc	a0,0x6
    80004110:	05450513          	addi	a0,a0,84 # 8000a160 <CONSOLE_STATUS+0x150>
    80004114:	fffff097          	auipc	ra,0xfffff
    80004118:	574080e7          	jalr	1396(ra) # 80003688 <_Z11printStringPKc>
    8000411c:	00000613          	li	a2,0
    80004120:	00a00593          	li	a1,10
    80004124:	00048513          	mv	a0,s1
    80004128:	fffff097          	auipc	ra,0xfffff
    8000412c:	710080e7          	jalr	1808(ra) # 80003838 <_Z8printIntiii>
    80004130:	00006517          	auipc	a0,0x6
    80004134:	22050513          	addi	a0,a0,544 # 8000a350 <CONSOLE_STATUS+0x340>
    80004138:	fffff097          	auipc	ra,0xfffff
    8000413c:	550080e7          	jalr	1360(ra) # 80003688 <_Z11printStringPKc>
    for (; i < 16; i++) {
    80004140:	0014849b          	addiw	s1,s1,1
    80004144:	0ff4f493          	andi	s1,s1,255
    80004148:	00f00793          	li	a5,15
    8000414c:	fc97f0e3          	bgeu	a5,s1,8000410c <_ZL11workerBodyDPv+0xc8>
    }

    printString("D finished!\n");
    80004150:	00006517          	auipc	a0,0x6
    80004154:	03850513          	addi	a0,a0,56 # 8000a188 <CONSOLE_STATUS+0x178>
    80004158:	fffff097          	auipc	ra,0xfffff
    8000415c:	530080e7          	jalr	1328(ra) # 80003688 <_Z11printStringPKc>
    finishedD = true;
    80004160:	00100793          	li	a5,1
    80004164:	00009717          	auipc	a4,0x9
    80004168:	d8f70b23          	sb	a5,-618(a4) # 8000cefa <_ZL9finishedD>
    thread_dispatch();
    8000416c:	00001097          	auipc	ra,0x1
    80004170:	8e0080e7          	jalr	-1824(ra) # 80004a4c <thread_dispatch>
}
    80004174:	01813083          	ld	ra,24(sp)
    80004178:	01013403          	ld	s0,16(sp)
    8000417c:	00813483          	ld	s1,8(sp)
    80004180:	00013903          	ld	s2,0(sp)
    80004184:	02010113          	addi	sp,sp,32
    80004188:	00008067          	ret

000000008000418c <_ZL11workerBodyCPv>:
static void workerBodyC(void* arg) {
    8000418c:	fe010113          	addi	sp,sp,-32
    80004190:	00113c23          	sd	ra,24(sp)
    80004194:	00813823          	sd	s0,16(sp)
    80004198:	00913423          	sd	s1,8(sp)
    8000419c:	01213023          	sd	s2,0(sp)
    800041a0:	02010413          	addi	s0,sp,32
    uint8 i = 0;
    800041a4:	00000493          	li	s1,0
    800041a8:	0400006f          	j	800041e8 <_ZL11workerBodyCPv+0x5c>
        printString("C: i="); printInt(i); printString("\n");
    800041ac:	00006517          	auipc	a0,0x6
    800041b0:	f8450513          	addi	a0,a0,-124 # 8000a130 <CONSOLE_STATUS+0x120>
    800041b4:	fffff097          	auipc	ra,0xfffff
    800041b8:	4d4080e7          	jalr	1236(ra) # 80003688 <_Z11printStringPKc>
    800041bc:	00000613          	li	a2,0
    800041c0:	00a00593          	li	a1,10
    800041c4:	00048513          	mv	a0,s1
    800041c8:	fffff097          	auipc	ra,0xfffff
    800041cc:	670080e7          	jalr	1648(ra) # 80003838 <_Z8printIntiii>
    800041d0:	00006517          	auipc	a0,0x6
    800041d4:	18050513          	addi	a0,a0,384 # 8000a350 <CONSOLE_STATUS+0x340>
    800041d8:	fffff097          	auipc	ra,0xfffff
    800041dc:	4b0080e7          	jalr	1200(ra) # 80003688 <_Z11printStringPKc>
    for (; i < 3; i++) {
    800041e0:	0014849b          	addiw	s1,s1,1
    800041e4:	0ff4f493          	andi	s1,s1,255
    800041e8:	00200793          	li	a5,2
    800041ec:	fc97f0e3          	bgeu	a5,s1,800041ac <_ZL11workerBodyCPv+0x20>
    printString("C: dispatch\n");
    800041f0:	00006517          	auipc	a0,0x6
    800041f4:	f4850513          	addi	a0,a0,-184 # 8000a138 <CONSOLE_STATUS+0x128>
    800041f8:	fffff097          	auipc	ra,0xfffff
    800041fc:	490080e7          	jalr	1168(ra) # 80003688 <_Z11printStringPKc>
    __asm__ ("li t1, 7");
    80004200:	00700313          	li	t1,7
    thread_dispatch();
    80004204:	00001097          	auipc	ra,0x1
    80004208:	848080e7          	jalr	-1976(ra) # 80004a4c <thread_dispatch>
    __asm__ ("mv %[t1], t1" : [t1] "=r"(t1));
    8000420c:	00030913          	mv	s2,t1
    printString("C: t1="); printInt(t1); printString("\n");
    80004210:	00006517          	auipc	a0,0x6
    80004214:	f3850513          	addi	a0,a0,-200 # 8000a148 <CONSOLE_STATUS+0x138>
    80004218:	fffff097          	auipc	ra,0xfffff
    8000421c:	470080e7          	jalr	1136(ra) # 80003688 <_Z11printStringPKc>
    80004220:	00000613          	li	a2,0
    80004224:	00a00593          	li	a1,10
    80004228:	0009051b          	sext.w	a0,s2
    8000422c:	fffff097          	auipc	ra,0xfffff
    80004230:	60c080e7          	jalr	1548(ra) # 80003838 <_Z8printIntiii>
    80004234:	00006517          	auipc	a0,0x6
    80004238:	11c50513          	addi	a0,a0,284 # 8000a350 <CONSOLE_STATUS+0x340>
    8000423c:	fffff097          	auipc	ra,0xfffff
    80004240:	44c080e7          	jalr	1100(ra) # 80003688 <_Z11printStringPKc>
    uint64 result = fibonacci(12);
    80004244:	00c00513          	li	a0,12
    80004248:	00000097          	auipc	ra,0x0
    8000424c:	d88080e7          	jalr	-632(ra) # 80003fd0 <_ZL9fibonaccim>
    80004250:	00050913          	mv	s2,a0
    printString("C: fibonaci="); printInt(result); printString("\n");
    80004254:	00006517          	auipc	a0,0x6
    80004258:	efc50513          	addi	a0,a0,-260 # 8000a150 <CONSOLE_STATUS+0x140>
    8000425c:	fffff097          	auipc	ra,0xfffff
    80004260:	42c080e7          	jalr	1068(ra) # 80003688 <_Z11printStringPKc>
    80004264:	00000613          	li	a2,0
    80004268:	00a00593          	li	a1,10
    8000426c:	0009051b          	sext.w	a0,s2
    80004270:	fffff097          	auipc	ra,0xfffff
    80004274:	5c8080e7          	jalr	1480(ra) # 80003838 <_Z8printIntiii>
    80004278:	00006517          	auipc	a0,0x6
    8000427c:	0d850513          	addi	a0,a0,216 # 8000a350 <CONSOLE_STATUS+0x340>
    80004280:	fffff097          	auipc	ra,0xfffff
    80004284:	408080e7          	jalr	1032(ra) # 80003688 <_Z11printStringPKc>
    80004288:	0400006f          	j	800042c8 <_ZL11workerBodyCPv+0x13c>
        printString("C: i="); printInt(i); printString("\n");
    8000428c:	00006517          	auipc	a0,0x6
    80004290:	ea450513          	addi	a0,a0,-348 # 8000a130 <CONSOLE_STATUS+0x120>
    80004294:	fffff097          	auipc	ra,0xfffff
    80004298:	3f4080e7          	jalr	1012(ra) # 80003688 <_Z11printStringPKc>
    8000429c:	00000613          	li	a2,0
    800042a0:	00a00593          	li	a1,10
    800042a4:	00048513          	mv	a0,s1
    800042a8:	fffff097          	auipc	ra,0xfffff
    800042ac:	590080e7          	jalr	1424(ra) # 80003838 <_Z8printIntiii>
    800042b0:	00006517          	auipc	a0,0x6
    800042b4:	0a050513          	addi	a0,a0,160 # 8000a350 <CONSOLE_STATUS+0x340>
    800042b8:	fffff097          	auipc	ra,0xfffff
    800042bc:	3d0080e7          	jalr	976(ra) # 80003688 <_Z11printStringPKc>
    for (; i < 6; i++) {
    800042c0:	0014849b          	addiw	s1,s1,1
    800042c4:	0ff4f493          	andi	s1,s1,255
    800042c8:	00500793          	li	a5,5
    800042cc:	fc97f0e3          	bgeu	a5,s1,8000428c <_ZL11workerBodyCPv+0x100>
    printString("A finished!\n");
    800042d0:	00006517          	auipc	a0,0x6
    800042d4:	e3850513          	addi	a0,a0,-456 # 8000a108 <CONSOLE_STATUS+0xf8>
    800042d8:	fffff097          	auipc	ra,0xfffff
    800042dc:	3b0080e7          	jalr	944(ra) # 80003688 <_Z11printStringPKc>
    finishedC = true;
    800042e0:	00100793          	li	a5,1
    800042e4:	00009717          	auipc	a4,0x9
    800042e8:	c0f70ba3          	sb	a5,-1001(a4) # 8000cefb <_ZL9finishedC>
    thread_dispatch();
    800042ec:	00000097          	auipc	ra,0x0
    800042f0:	760080e7          	jalr	1888(ra) # 80004a4c <thread_dispatch>
}
    800042f4:	01813083          	ld	ra,24(sp)
    800042f8:	01013403          	ld	s0,16(sp)
    800042fc:	00813483          	ld	s1,8(sp)
    80004300:	00013903          	ld	s2,0(sp)
    80004304:	02010113          	addi	sp,sp,32
    80004308:	00008067          	ret

000000008000430c <_ZL11workerBodyBPv>:
static void workerBodyB(void* arg) {
    8000430c:	fe010113          	addi	sp,sp,-32
    80004310:	00113c23          	sd	ra,24(sp)
    80004314:	00813823          	sd	s0,16(sp)
    80004318:	00913423          	sd	s1,8(sp)
    8000431c:	01213023          	sd	s2,0(sp)
    80004320:	02010413          	addi	s0,sp,32
    for (uint64 i = 0; i < 16; i++) {
    80004324:	00000913          	li	s2,0
    80004328:	0400006f          	j	80004368 <_ZL11workerBodyBPv+0x5c>
            thread_dispatch();
    8000432c:	00000097          	auipc	ra,0x0
    80004330:	720080e7          	jalr	1824(ra) # 80004a4c <thread_dispatch>
        for (uint64 j = 0; j < 10000; j++) {
    80004334:	00148493          	addi	s1,s1,1
    80004338:	000027b7          	lui	a5,0x2
    8000433c:	70f78793          	addi	a5,a5,1807 # 270f <_entry-0x7fffd8f1>
    80004340:	0097ee63          	bltu	a5,s1,8000435c <_ZL11workerBodyBPv+0x50>
            for (uint64 k = 0; k < 30000; k++) { /* busy wait */ }
    80004344:	00000713          	li	a4,0
    80004348:	000077b7          	lui	a5,0x7
    8000434c:	52f78793          	addi	a5,a5,1327 # 752f <_entry-0x7fff8ad1>
    80004350:	fce7eee3          	bltu	a5,a4,8000432c <_ZL11workerBodyBPv+0x20>
    80004354:	00170713          	addi	a4,a4,1
    80004358:	ff1ff06f          	j	80004348 <_ZL11workerBodyBPv+0x3c>
        if (i == 10) {
    8000435c:	00a00793          	li	a5,10
    80004360:	04f90663          	beq	s2,a5,800043ac <_ZL11workerBodyBPv+0xa0>
    for (uint64 i = 0; i < 16; i++) {
    80004364:	00190913          	addi	s2,s2,1
    80004368:	00f00793          	li	a5,15
    8000436c:	0527e463          	bltu	a5,s2,800043b4 <_ZL11workerBodyBPv+0xa8>
        printString("B: i="); printInt(i); printString("\n");
    80004370:	00006517          	auipc	a0,0x6
    80004374:	da850513          	addi	a0,a0,-600 # 8000a118 <CONSOLE_STATUS+0x108>
    80004378:	fffff097          	auipc	ra,0xfffff
    8000437c:	310080e7          	jalr	784(ra) # 80003688 <_Z11printStringPKc>
    80004380:	00000613          	li	a2,0
    80004384:	00a00593          	li	a1,10
    80004388:	0009051b          	sext.w	a0,s2
    8000438c:	fffff097          	auipc	ra,0xfffff
    80004390:	4ac080e7          	jalr	1196(ra) # 80003838 <_Z8printIntiii>
    80004394:	00006517          	auipc	a0,0x6
    80004398:	fbc50513          	addi	a0,a0,-68 # 8000a350 <CONSOLE_STATUS+0x340>
    8000439c:	fffff097          	auipc	ra,0xfffff
    800043a0:	2ec080e7          	jalr	748(ra) # 80003688 <_Z11printStringPKc>
        for (uint64 j = 0; j < 10000; j++) {
    800043a4:	00000493          	li	s1,0
    800043a8:	f91ff06f          	j	80004338 <_ZL11workerBodyBPv+0x2c>
            asm volatile("csrr t6, sepc");
    800043ac:	14102ff3          	csrr	t6,sepc
    800043b0:	fb5ff06f          	j	80004364 <_ZL11workerBodyBPv+0x58>
    printString("B finished!\n");
    800043b4:	00006517          	auipc	a0,0x6
    800043b8:	d6c50513          	addi	a0,a0,-660 # 8000a120 <CONSOLE_STATUS+0x110>
    800043bc:	fffff097          	auipc	ra,0xfffff
    800043c0:	2cc080e7          	jalr	716(ra) # 80003688 <_Z11printStringPKc>
    finishedB = true;
    800043c4:	00100793          	li	a5,1
    800043c8:	00009717          	auipc	a4,0x9
    800043cc:	b2f70a23          	sb	a5,-1228(a4) # 8000cefc <_ZL9finishedB>
    thread_dispatch();
    800043d0:	00000097          	auipc	ra,0x0
    800043d4:	67c080e7          	jalr	1660(ra) # 80004a4c <thread_dispatch>
}
    800043d8:	01813083          	ld	ra,24(sp)
    800043dc:	01013403          	ld	s0,16(sp)
    800043e0:	00813483          	ld	s1,8(sp)
    800043e4:	00013903          	ld	s2,0(sp)
    800043e8:	02010113          	addi	sp,sp,32
    800043ec:	00008067          	ret

00000000800043f0 <_ZL11workerBodyAPv>:
static void workerBodyA(void* arg) {
    800043f0:	fe010113          	addi	sp,sp,-32
    800043f4:	00113c23          	sd	ra,24(sp)
    800043f8:	00813823          	sd	s0,16(sp)
    800043fc:	00913423          	sd	s1,8(sp)
    80004400:	01213023          	sd	s2,0(sp)
    80004404:	02010413          	addi	s0,sp,32
    for (uint64 i = 0; i < 10; i++) {
    80004408:	00000913          	li	s2,0
    8000440c:	0380006f          	j	80004444 <_ZL11workerBodyAPv+0x54>
            thread_dispatch();
    80004410:	00000097          	auipc	ra,0x0
    80004414:	63c080e7          	jalr	1596(ra) # 80004a4c <thread_dispatch>
        for (uint64 j = 0; j < 10000; j++) {
    80004418:	00148493          	addi	s1,s1,1
    8000441c:	000027b7          	lui	a5,0x2
    80004420:	70f78793          	addi	a5,a5,1807 # 270f <_entry-0x7fffd8f1>
    80004424:	0097ee63          	bltu	a5,s1,80004440 <_ZL11workerBodyAPv+0x50>
            for (uint64 k = 0; k < 30000; k++) { /* busy wait */ }
    80004428:	00000713          	li	a4,0
    8000442c:	000077b7          	lui	a5,0x7
    80004430:	52f78793          	addi	a5,a5,1327 # 752f <_entry-0x7fff8ad1>
    80004434:	fce7eee3          	bltu	a5,a4,80004410 <_ZL11workerBodyAPv+0x20>
    80004438:	00170713          	addi	a4,a4,1
    8000443c:	ff1ff06f          	j	8000442c <_ZL11workerBodyAPv+0x3c>
    for (uint64 i = 0; i < 10; i++) {
    80004440:	00190913          	addi	s2,s2,1
    80004444:	00900793          	li	a5,9
    80004448:	0527e063          	bltu	a5,s2,80004488 <_ZL11workerBodyAPv+0x98>
        printString("A: i="); printInt(i); printString("\n");
    8000444c:	00006517          	auipc	a0,0x6
    80004450:	cb450513          	addi	a0,a0,-844 # 8000a100 <CONSOLE_STATUS+0xf0>
    80004454:	fffff097          	auipc	ra,0xfffff
    80004458:	234080e7          	jalr	564(ra) # 80003688 <_Z11printStringPKc>
    8000445c:	00000613          	li	a2,0
    80004460:	00a00593          	li	a1,10
    80004464:	0009051b          	sext.w	a0,s2
    80004468:	fffff097          	auipc	ra,0xfffff
    8000446c:	3d0080e7          	jalr	976(ra) # 80003838 <_Z8printIntiii>
    80004470:	00006517          	auipc	a0,0x6
    80004474:	ee050513          	addi	a0,a0,-288 # 8000a350 <CONSOLE_STATUS+0x340>
    80004478:	fffff097          	auipc	ra,0xfffff
    8000447c:	210080e7          	jalr	528(ra) # 80003688 <_Z11printStringPKc>
        for (uint64 j = 0; j < 10000; j++) {
    80004480:	00000493          	li	s1,0
    80004484:	f99ff06f          	j	8000441c <_ZL11workerBodyAPv+0x2c>
    printString("A finished!\n");
    80004488:	00006517          	auipc	a0,0x6
    8000448c:	c8050513          	addi	a0,a0,-896 # 8000a108 <CONSOLE_STATUS+0xf8>
    80004490:	fffff097          	auipc	ra,0xfffff
    80004494:	1f8080e7          	jalr	504(ra) # 80003688 <_Z11printStringPKc>
    finishedA = true;
    80004498:	00100793          	li	a5,1
    8000449c:	00009717          	auipc	a4,0x9
    800044a0:	a6f700a3          	sb	a5,-1439(a4) # 8000cefd <_ZL9finishedA>
}
    800044a4:	01813083          	ld	ra,24(sp)
    800044a8:	01013403          	ld	s0,16(sp)
    800044ac:	00813483          	ld	s1,8(sp)
    800044b0:	00013903          	ld	s2,0(sp)
    800044b4:	02010113          	addi	sp,sp,32
    800044b8:	00008067          	ret

00000000800044bc <_Z16System_Mode_testv>:


void System_Mode_test() {
    800044bc:	fd010113          	addi	sp,sp,-48
    800044c0:	02113423          	sd	ra,40(sp)
    800044c4:	02813023          	sd	s0,32(sp)
    800044c8:	03010413          	addi	s0,sp,48
    thread_t threads[4];
    thread_create(&threads[0], workerBodyA, nullptr);
    800044cc:	00000613          	li	a2,0
    800044d0:	00000597          	auipc	a1,0x0
    800044d4:	f2058593          	addi	a1,a1,-224 # 800043f0 <_ZL11workerBodyAPv>
    800044d8:	fd040513          	addi	a0,s0,-48
    800044dc:	00000097          	auipc	ra,0x0
    800044e0:	4b4080e7          	jalr	1204(ra) # 80004990 <thread_create>
    printString("ThreadA created\n");
    800044e4:	00006517          	auipc	a0,0x6
    800044e8:	cb450513          	addi	a0,a0,-844 # 8000a198 <CONSOLE_STATUS+0x188>
    800044ec:	fffff097          	auipc	ra,0xfffff
    800044f0:	19c080e7          	jalr	412(ra) # 80003688 <_Z11printStringPKc>

    thread_create(&threads[1], workerBodyB, nullptr);
    800044f4:	00000613          	li	a2,0
    800044f8:	00000597          	auipc	a1,0x0
    800044fc:	e1458593          	addi	a1,a1,-492 # 8000430c <_ZL11workerBodyBPv>
    80004500:	fd840513          	addi	a0,s0,-40
    80004504:	00000097          	auipc	ra,0x0
    80004508:	48c080e7          	jalr	1164(ra) # 80004990 <thread_create>
    printString("ThreadB created\n");
    8000450c:	00006517          	auipc	a0,0x6
    80004510:	ca450513          	addi	a0,a0,-860 # 8000a1b0 <CONSOLE_STATUS+0x1a0>
    80004514:	fffff097          	auipc	ra,0xfffff
    80004518:	174080e7          	jalr	372(ra) # 80003688 <_Z11printStringPKc>

    thread_create(&threads[2], workerBodyC, nullptr);
    8000451c:	00000613          	li	a2,0
    80004520:	00000597          	auipc	a1,0x0
    80004524:	c6c58593          	addi	a1,a1,-916 # 8000418c <_ZL11workerBodyCPv>
    80004528:	fe040513          	addi	a0,s0,-32
    8000452c:	00000097          	auipc	ra,0x0
    80004530:	464080e7          	jalr	1124(ra) # 80004990 <thread_create>
    printString("ThreadC created\n");
    80004534:	00006517          	auipc	a0,0x6
    80004538:	c9450513          	addi	a0,a0,-876 # 8000a1c8 <CONSOLE_STATUS+0x1b8>
    8000453c:	fffff097          	auipc	ra,0xfffff
    80004540:	14c080e7          	jalr	332(ra) # 80003688 <_Z11printStringPKc>

    thread_create(&threads[3], workerBodyD, nullptr);
    80004544:	00000613          	li	a2,0
    80004548:	00000597          	auipc	a1,0x0
    8000454c:	afc58593          	addi	a1,a1,-1284 # 80004044 <_ZL11workerBodyDPv>
    80004550:	fe840513          	addi	a0,s0,-24
    80004554:	00000097          	auipc	ra,0x0
    80004558:	43c080e7          	jalr	1084(ra) # 80004990 <thread_create>
    printString("ThreadD created\n");
    8000455c:	00006517          	auipc	a0,0x6
    80004560:	c8450513          	addi	a0,a0,-892 # 8000a1e0 <CONSOLE_STATUS+0x1d0>
    80004564:	fffff097          	auipc	ra,0xfffff
    80004568:	124080e7          	jalr	292(ra) # 80003688 <_Z11printStringPKc>
    8000456c:	00c0006f          	j	80004578 <_Z16System_Mode_testv+0xbc>

    while (!(finishedA && finishedB && finishedC && finishedD)) {
        thread_dispatch();
    80004570:	00000097          	auipc	ra,0x0
    80004574:	4dc080e7          	jalr	1244(ra) # 80004a4c <thread_dispatch>
    while (!(finishedA && finishedB && finishedC && finishedD)) {
    80004578:	00009797          	auipc	a5,0x9
    8000457c:	9857c783          	lbu	a5,-1659(a5) # 8000cefd <_ZL9finishedA>
    80004580:	fe0788e3          	beqz	a5,80004570 <_Z16System_Mode_testv+0xb4>
    80004584:	00009797          	auipc	a5,0x9
    80004588:	9787c783          	lbu	a5,-1672(a5) # 8000cefc <_ZL9finishedB>
    8000458c:	fe0782e3          	beqz	a5,80004570 <_Z16System_Mode_testv+0xb4>
    80004590:	00009797          	auipc	a5,0x9
    80004594:	96b7c783          	lbu	a5,-1685(a5) # 8000cefb <_ZL9finishedC>
    80004598:	fc078ce3          	beqz	a5,80004570 <_Z16System_Mode_testv+0xb4>
    8000459c:	00009797          	auipc	a5,0x9
    800045a0:	95e7c783          	lbu	a5,-1698(a5) # 8000cefa <_ZL9finishedD>
    800045a4:	fc0786e3          	beqz	a5,80004570 <_Z16System_Mode_testv+0xb4>
    }

}
    800045a8:	02813083          	ld	ra,40(sp)
    800045ac:	02013403          	ld	s0,32(sp)
    800045b0:	03010113          	addi	sp,sp,48
    800045b4:	00008067          	ret

00000000800045b8 <_ZN6BufferC1Ei>:
#include "buffer.hpp"

Buffer::Buffer(int _cap) : cap(_cap + 1), head(0), tail(0) {
    800045b8:	fe010113          	addi	sp,sp,-32
    800045bc:	00113c23          	sd	ra,24(sp)
    800045c0:	00813823          	sd	s0,16(sp)
    800045c4:	00913423          	sd	s1,8(sp)
    800045c8:	01213023          	sd	s2,0(sp)
    800045cc:	02010413          	addi	s0,sp,32
    800045d0:	00050493          	mv	s1,a0
    800045d4:	00058913          	mv	s2,a1
    800045d8:	0015879b          	addiw	a5,a1,1
    800045dc:	0007851b          	sext.w	a0,a5
    800045e0:	00f4a023          	sw	a5,0(s1)
    800045e4:	0004a823          	sw	zero,16(s1)
    800045e8:	0004aa23          	sw	zero,20(s1)
    buffer = (int *)mem_alloc(sizeof(int) * cap);
    800045ec:	00251513          	slli	a0,a0,0x2
    800045f0:	00000097          	auipc	ra,0x0
    800045f4:	318080e7          	jalr	792(ra) # 80004908 <mem_alloc>
    800045f8:	00a4b423          	sd	a0,8(s1)
    sem_open(&itemAvailable, 0);
    800045fc:	00000593          	li	a1,0
    80004600:	02048513          	addi	a0,s1,32
    80004604:	00000097          	auipc	ra,0x0
    80004608:	484080e7          	jalr	1156(ra) # 80004a88 <sem_open>
    sem_open(&spaceAvailable, _cap);
    8000460c:	00090593          	mv	a1,s2
    80004610:	01848513          	addi	a0,s1,24
    80004614:	00000097          	auipc	ra,0x0
    80004618:	474080e7          	jalr	1140(ra) # 80004a88 <sem_open>
    sem_open(&mutexHead, 1);
    8000461c:	00100593          	li	a1,1
    80004620:	02848513          	addi	a0,s1,40
    80004624:	00000097          	auipc	ra,0x0
    80004628:	464080e7          	jalr	1124(ra) # 80004a88 <sem_open>
    sem_open(&mutexTail, 1);
    8000462c:	00100593          	li	a1,1
    80004630:	03048513          	addi	a0,s1,48
    80004634:	00000097          	auipc	ra,0x0
    80004638:	454080e7          	jalr	1108(ra) # 80004a88 <sem_open>
}
    8000463c:	01813083          	ld	ra,24(sp)
    80004640:	01013403          	ld	s0,16(sp)
    80004644:	00813483          	ld	s1,8(sp)
    80004648:	00013903          	ld	s2,0(sp)
    8000464c:	02010113          	addi	sp,sp,32
    80004650:	00008067          	ret

0000000080004654 <_ZN6Buffer3putEi>:
    sem_close(spaceAvailable);
    sem_close(mutexTail);
    sem_close(mutexHead);
}

void Buffer::put(int val) {
    80004654:	fe010113          	addi	sp,sp,-32
    80004658:	00113c23          	sd	ra,24(sp)
    8000465c:	00813823          	sd	s0,16(sp)
    80004660:	00913423          	sd	s1,8(sp)
    80004664:	01213023          	sd	s2,0(sp)
    80004668:	02010413          	addi	s0,sp,32
    8000466c:	00050493          	mv	s1,a0
    80004670:	00058913          	mv	s2,a1
    sem_wait(spaceAvailable);
    80004674:	01853503          	ld	a0,24(a0)
    80004678:	00000097          	auipc	ra,0x0
    8000467c:	494080e7          	jalr	1172(ra) # 80004b0c <sem_wait>

    sem_wait(mutexTail);
    80004680:	0304b503          	ld	a0,48(s1)
    80004684:	00000097          	auipc	ra,0x0
    80004688:	488080e7          	jalr	1160(ra) # 80004b0c <sem_wait>
    buffer[tail] = val;
    8000468c:	0084b783          	ld	a5,8(s1)
    80004690:	0144a703          	lw	a4,20(s1)
    80004694:	00271713          	slli	a4,a4,0x2
    80004698:	00e787b3          	add	a5,a5,a4
    8000469c:	0127a023          	sw	s2,0(a5)
    tail = (tail + 1) % cap;
    800046a0:	0144a783          	lw	a5,20(s1)
    800046a4:	0017879b          	addiw	a5,a5,1
    800046a8:	0004a703          	lw	a4,0(s1)
    800046ac:	02e7e7bb          	remw	a5,a5,a4
    800046b0:	00f4aa23          	sw	a5,20(s1)
    sem_signal(mutexTail);
    800046b4:	0304b503          	ld	a0,48(s1)
    800046b8:	00000097          	auipc	ra,0x0
    800046bc:	494080e7          	jalr	1172(ra) # 80004b4c <sem_signal>

    sem_signal(itemAvailable);
    800046c0:	0204b503          	ld	a0,32(s1)
    800046c4:	00000097          	auipc	ra,0x0
    800046c8:	488080e7          	jalr	1160(ra) # 80004b4c <sem_signal>

}
    800046cc:	01813083          	ld	ra,24(sp)
    800046d0:	01013403          	ld	s0,16(sp)
    800046d4:	00813483          	ld	s1,8(sp)
    800046d8:	00013903          	ld	s2,0(sp)
    800046dc:	02010113          	addi	sp,sp,32
    800046e0:	00008067          	ret

00000000800046e4 <_ZN6Buffer3getEv>:

int Buffer::get() {
    800046e4:	fe010113          	addi	sp,sp,-32
    800046e8:	00113c23          	sd	ra,24(sp)
    800046ec:	00813823          	sd	s0,16(sp)
    800046f0:	00913423          	sd	s1,8(sp)
    800046f4:	01213023          	sd	s2,0(sp)
    800046f8:	02010413          	addi	s0,sp,32
    800046fc:	00050493          	mv	s1,a0
    sem_wait(itemAvailable);
    80004700:	02053503          	ld	a0,32(a0)
    80004704:	00000097          	auipc	ra,0x0
    80004708:	408080e7          	jalr	1032(ra) # 80004b0c <sem_wait>

    sem_wait(mutexHead);
    8000470c:	0284b503          	ld	a0,40(s1)
    80004710:	00000097          	auipc	ra,0x0
    80004714:	3fc080e7          	jalr	1020(ra) # 80004b0c <sem_wait>

    int ret = buffer[head];
    80004718:	0084b703          	ld	a4,8(s1)
    8000471c:	0104a783          	lw	a5,16(s1)
    80004720:	00279693          	slli	a3,a5,0x2
    80004724:	00d70733          	add	a4,a4,a3
    80004728:	00072903          	lw	s2,0(a4)
    head = (head + 1) % cap;
    8000472c:	0017879b          	addiw	a5,a5,1
    80004730:	0004a703          	lw	a4,0(s1)
    80004734:	02e7e7bb          	remw	a5,a5,a4
    80004738:	00f4a823          	sw	a5,16(s1)
    sem_signal(mutexHead);
    8000473c:	0284b503          	ld	a0,40(s1)
    80004740:	00000097          	auipc	ra,0x0
    80004744:	40c080e7          	jalr	1036(ra) # 80004b4c <sem_signal>

    sem_signal(spaceAvailable);
    80004748:	0184b503          	ld	a0,24(s1)
    8000474c:	00000097          	auipc	ra,0x0
    80004750:	400080e7          	jalr	1024(ra) # 80004b4c <sem_signal>

    return ret;
}
    80004754:	00090513          	mv	a0,s2
    80004758:	01813083          	ld	ra,24(sp)
    8000475c:	01013403          	ld	s0,16(sp)
    80004760:	00813483          	ld	s1,8(sp)
    80004764:	00013903          	ld	s2,0(sp)
    80004768:	02010113          	addi	sp,sp,32
    8000476c:	00008067          	ret

0000000080004770 <_ZN6Buffer6getCntEv>:

int Buffer::getCnt() {
    80004770:	fe010113          	addi	sp,sp,-32
    80004774:	00113c23          	sd	ra,24(sp)
    80004778:	00813823          	sd	s0,16(sp)
    8000477c:	00913423          	sd	s1,8(sp)
    80004780:	01213023          	sd	s2,0(sp)
    80004784:	02010413          	addi	s0,sp,32
    80004788:	00050493          	mv	s1,a0
    int ret;

    sem_wait(mutexHead);
    8000478c:	02853503          	ld	a0,40(a0)
    80004790:	00000097          	auipc	ra,0x0
    80004794:	37c080e7          	jalr	892(ra) # 80004b0c <sem_wait>
    sem_wait(mutexTail);
    80004798:	0304b503          	ld	a0,48(s1)
    8000479c:	00000097          	auipc	ra,0x0
    800047a0:	370080e7          	jalr	880(ra) # 80004b0c <sem_wait>

    if (tail >= head) {
    800047a4:	0144a783          	lw	a5,20(s1)
    800047a8:	0104a903          	lw	s2,16(s1)
    800047ac:	0327ce63          	blt	a5,s2,800047e8 <_ZN6Buffer6getCntEv+0x78>
        ret = tail - head;
    800047b0:	4127893b          	subw	s2,a5,s2
    } else {
        ret = cap - head + tail;
    }

    sem_signal(mutexTail);
    800047b4:	0304b503          	ld	a0,48(s1)
    800047b8:	00000097          	auipc	ra,0x0
    800047bc:	394080e7          	jalr	916(ra) # 80004b4c <sem_signal>
    sem_signal(mutexHead);
    800047c0:	0284b503          	ld	a0,40(s1)
    800047c4:	00000097          	auipc	ra,0x0
    800047c8:	388080e7          	jalr	904(ra) # 80004b4c <sem_signal>

    return ret;
}
    800047cc:	00090513          	mv	a0,s2
    800047d0:	01813083          	ld	ra,24(sp)
    800047d4:	01013403          	ld	s0,16(sp)
    800047d8:	00813483          	ld	s1,8(sp)
    800047dc:	00013903          	ld	s2,0(sp)
    800047e0:	02010113          	addi	sp,sp,32
    800047e4:	00008067          	ret
        ret = cap - head + tail;
    800047e8:	0004a703          	lw	a4,0(s1)
    800047ec:	4127093b          	subw	s2,a4,s2
    800047f0:	00f9093b          	addw	s2,s2,a5
    800047f4:	fc1ff06f          	j	800047b4 <_ZN6Buffer6getCntEv+0x44>

00000000800047f8 <_ZN6BufferD1Ev>:
Buffer::~Buffer() {
    800047f8:	fe010113          	addi	sp,sp,-32
    800047fc:	00113c23          	sd	ra,24(sp)
    80004800:	00813823          	sd	s0,16(sp)
    80004804:	00913423          	sd	s1,8(sp)
    80004808:	02010413          	addi	s0,sp,32
    8000480c:	00050493          	mv	s1,a0
    putc('\n');
    80004810:	00a00513          	li	a0,10
    80004814:	00000097          	auipc	ra,0x0
    80004818:	490080e7          	jalr	1168(ra) # 80004ca4 <putc>
    printString("Buffer deleted!\n");
    8000481c:	00006517          	auipc	a0,0x6
    80004820:	9dc50513          	addi	a0,a0,-1572 # 8000a1f8 <CONSOLE_STATUS+0x1e8>
    80004824:	fffff097          	auipc	ra,0xfffff
    80004828:	e64080e7          	jalr	-412(ra) # 80003688 <_Z11printStringPKc>
    while (getCnt() > 0) {
    8000482c:	00048513          	mv	a0,s1
    80004830:	00000097          	auipc	ra,0x0
    80004834:	f40080e7          	jalr	-192(ra) # 80004770 <_ZN6Buffer6getCntEv>
    80004838:	02a05c63          	blez	a0,80004870 <_ZN6BufferD1Ev+0x78>
        char ch = buffer[head];
    8000483c:	0084b783          	ld	a5,8(s1)
    80004840:	0104a703          	lw	a4,16(s1)
    80004844:	00271713          	slli	a4,a4,0x2
    80004848:	00e787b3          	add	a5,a5,a4
        putc(ch);
    8000484c:	0007c503          	lbu	a0,0(a5)
    80004850:	00000097          	auipc	ra,0x0
    80004854:	454080e7          	jalr	1108(ra) # 80004ca4 <putc>
        head = (head + 1) % cap;
    80004858:	0104a783          	lw	a5,16(s1)
    8000485c:	0017879b          	addiw	a5,a5,1
    80004860:	0004a703          	lw	a4,0(s1)
    80004864:	02e7e7bb          	remw	a5,a5,a4
    80004868:	00f4a823          	sw	a5,16(s1)
    while (getCnt() > 0) {
    8000486c:	fc1ff06f          	j	8000482c <_ZN6BufferD1Ev+0x34>
    putc('!');
    80004870:	02100513          	li	a0,33
    80004874:	00000097          	auipc	ra,0x0
    80004878:	430080e7          	jalr	1072(ra) # 80004ca4 <putc>
    putc('\n');
    8000487c:	00a00513          	li	a0,10
    80004880:	00000097          	auipc	ra,0x0
    80004884:	424080e7          	jalr	1060(ra) # 80004ca4 <putc>
    mem_free(buffer);
    80004888:	0084b503          	ld	a0,8(s1)
    8000488c:	00000097          	auipc	ra,0x0
    80004890:	0c4080e7          	jalr	196(ra) # 80004950 <mem_free>
    sem_close(itemAvailable);
    80004894:	0204b503          	ld	a0,32(s1)
    80004898:	00000097          	auipc	ra,0x0
    8000489c:	234080e7          	jalr	564(ra) # 80004acc <sem_close>
    sem_close(spaceAvailable);
    800048a0:	0184b503          	ld	a0,24(s1)
    800048a4:	00000097          	auipc	ra,0x0
    800048a8:	228080e7          	jalr	552(ra) # 80004acc <sem_close>
    sem_close(mutexTail);
    800048ac:	0304b503          	ld	a0,48(s1)
    800048b0:	00000097          	auipc	ra,0x0
    800048b4:	21c080e7          	jalr	540(ra) # 80004acc <sem_close>
    sem_close(mutexHead);
    800048b8:	0284b503          	ld	a0,40(s1)
    800048bc:	00000097          	auipc	ra,0x0
    800048c0:	210080e7          	jalr	528(ra) # 80004acc <sem_close>
}
    800048c4:	01813083          	ld	ra,24(sp)
    800048c8:	01013403          	ld	s0,16(sp)
    800048cc:	00813483          	ld	s1,8(sp)
    800048d0:	02010113          	addi	sp,sp,32
    800048d4:	00008067          	ret

00000000800048d8 <_Z15syscall_wrapper5sysIDPvS0_S0_S0_>:
#include "../inc/syscall_c.hpp"
#include "../inc/riscv.hpp" // included sysID, printingSupervisor


uint64 syscall_wrapper(sysID id, void* a1 = 0, void* a2 = 0, void* a3 = 0, void* a4 = 0){
    800048d8:	fe010113          	addi	sp,sp,-32
    800048dc:	00813c23          	sd	s0,24(sp)
    800048e0:	02010413          	addi	s0,sp,32

// ========================================================================


inline void Riscv::ecall() {
    __asm__ volatile ("ecall");
    800048e4:	00000073          	ecall
}

inline uint64 Riscv::r_a0() {
    uint64 volatile a0;
    __asm__ volatile ("mv %[a0], a0" : [a0] "=r"(a0));
    800048e8:	00050793          	mv	a5,a0
    800048ec:	fef43023          	sd	a5,-32(s0)
    return a0;
    800048f0:	fe043783          	ld	a5,-32(s0)
    /// arguments are implicitly stored in a0-a5 registers
    Riscv::ecall();
    uint64 volatile ret;
    ret = Riscv::r_a0();
    800048f4:	fef43423          	sd	a5,-24(s0)
    return ret;
    800048f8:	fe843503          	ld	a0,-24(s0)
}
    800048fc:	01813403          	ld	s0,24(sp)
    80004900:	02010113          	addi	sp,sp,32
    80004904:	00008067          	ret

0000000080004908 <mem_alloc>:

void *mem_alloc(size_t size) {
    80004908:	fe010113          	addi	sp,sp,-32
    8000490c:	00113c23          	sd	ra,24(sp)
    80004910:	00813823          	sd	s0,16(sp)
    80004914:	02010413          	addi	s0,sp,32
    uint64 volatile mem_in_blocks;
    mem_in_blocks = (size + MEM_BLOCK_SIZE - 1)/MEM_BLOCK_SIZE;
    80004918:	03f50513          	addi	a0,a0,63
    8000491c:	00655513          	srli	a0,a0,0x6
    80004920:	fea43423          	sd	a0,-24(s0)
    return (void*) syscall_wrapper(sysID::MEM_ALLOC, (void*)mem_in_blocks);
    80004924:	fe843583          	ld	a1,-24(s0)
    80004928:	00000713          	li	a4,0
    8000492c:	00000693          	li	a3,0
    80004930:	00000613          	li	a2,0
    80004934:	00100513          	li	a0,1
    80004938:	00000097          	auipc	ra,0x0
    8000493c:	fa0080e7          	jalr	-96(ra) # 800048d8 <_Z15syscall_wrapper5sysIDPvS0_S0_S0_>
}
    80004940:	01813083          	ld	ra,24(sp)
    80004944:	01013403          	ld	s0,16(sp)
    80004948:	02010113          	addi	sp,sp,32
    8000494c:	00008067          	ret

0000000080004950 <mem_free>:

int mem_free(void *ptr) {
    80004950:	ff010113          	addi	sp,sp,-16
    80004954:	00113423          	sd	ra,8(sp)
    80004958:	00813023          	sd	s0,0(sp)
    8000495c:	01010413          	addi	s0,sp,16
    80004960:	00050593          	mv	a1,a0
    return (int)syscall_wrapper(sysID::MEM_FREE, ptr);
    80004964:	00000713          	li	a4,0
    80004968:	00000693          	li	a3,0
    8000496c:	00000613          	li	a2,0
    80004970:	00200513          	li	a0,2
    80004974:	00000097          	auipc	ra,0x0
    80004978:	f64080e7          	jalr	-156(ra) # 800048d8 <_Z15syscall_wrapper5sysIDPvS0_S0_S0_>
}
    8000497c:	0005051b          	sext.w	a0,a0
    80004980:	00813083          	ld	ra,8(sp)
    80004984:	00013403          	ld	s0,0(sp)
    80004988:	01010113          	addi	sp,sp,16
    8000498c:	00008067          	ret

0000000080004990 <thread_create>:

int thread_create(thread_t *handle, void (*start_routine)(void *), void *arg) {
    80004990:	fd010113          	addi	sp,sp,-48
    80004994:	02113423          	sd	ra,40(sp)
    80004998:	02813023          	sd	s0,32(sp)
    8000499c:	00913c23          	sd	s1,24(sp)
    800049a0:	01213823          	sd	s2,16(sp)
    800049a4:	01313423          	sd	s3,8(sp)
    800049a8:	03010413          	addi	s0,sp,48
    800049ac:	00050493          	mv	s1,a0
    800049b0:	00058913          	mv	s2,a1
    800049b4:	00060993          	mv	s3,a2
    void* stack_space = mem_alloc(DEFAULT_STACK_SIZE); /// allocate stack
    800049b8:	00001537          	lui	a0,0x1
    800049bc:	00000097          	auipc	ra,0x0
    800049c0:	f4c080e7          	jalr	-180(ra) # 80004908 <mem_alloc>
    if(!stack_space) return -1; /// no space for stack
    800049c4:	04050063          	beqz	a0,80004a04 <thread_create+0x74>
    800049c8:	00050713          	mv	a4,a0
    return (int) syscall_wrapper(sysID::THREAD_CREATE, (void *)handle,(void *)start_routine, arg, stack_space);
    800049cc:	00098693          	mv	a3,s3
    800049d0:	00090613          	mv	a2,s2
    800049d4:	00048593          	mv	a1,s1
    800049d8:	01100513          	li	a0,17
    800049dc:	00000097          	auipc	ra,0x0
    800049e0:	efc080e7          	jalr	-260(ra) # 800048d8 <_Z15syscall_wrapper5sysIDPvS0_S0_S0_>
    800049e4:	0005051b          	sext.w	a0,a0
}
    800049e8:	02813083          	ld	ra,40(sp)
    800049ec:	02013403          	ld	s0,32(sp)
    800049f0:	01813483          	ld	s1,24(sp)
    800049f4:	01013903          	ld	s2,16(sp)
    800049f8:	00813983          	ld	s3,8(sp)
    800049fc:	03010113          	addi	sp,sp,48
    80004a00:	00008067          	ret
    if(!stack_space) return -1; /// no space for stack
    80004a04:	fff00513          	li	a0,-1
    80004a08:	fe1ff06f          	j	800049e8 <thread_create+0x58>

0000000080004a0c <thread_exit>:

int thread_exit() {
    80004a0c:	ff010113          	addi	sp,sp,-16
    80004a10:	00113423          	sd	ra,8(sp)
    80004a14:	00813023          	sd	s0,0(sp)
    80004a18:	01010413          	addi	s0,sp,16
    return (int) syscall_wrapper(sysID::THREAD_EXIT);
    80004a1c:	00000713          	li	a4,0
    80004a20:	00000693          	li	a3,0
    80004a24:	00000613          	li	a2,0
    80004a28:	00000593          	li	a1,0
    80004a2c:	01200513          	li	a0,18
    80004a30:	00000097          	auipc	ra,0x0
    80004a34:	ea8080e7          	jalr	-344(ra) # 800048d8 <_Z15syscall_wrapper5sysIDPvS0_S0_S0_>
}
    80004a38:	0005051b          	sext.w	a0,a0
    80004a3c:	00813083          	ld	ra,8(sp)
    80004a40:	00013403          	ld	s0,0(sp)
    80004a44:	01010113          	addi	sp,sp,16
    80004a48:	00008067          	ret

0000000080004a4c <thread_dispatch>:

void thread_dispatch() {
    80004a4c:	ff010113          	addi	sp,sp,-16
    80004a50:	00113423          	sd	ra,8(sp)
    80004a54:	00813023          	sd	s0,0(sp)
    80004a58:	01010413          	addi	s0,sp,16
    //uint64 volatile save_a0 = Riscv::r_a0();
    syscall_wrapper(sysID::THREAD_DISPATCH);
    80004a5c:	00000713          	li	a4,0
    80004a60:	00000693          	li	a3,0
    80004a64:	00000613          	li	a2,0
    80004a68:	00000593          	li	a1,0
    80004a6c:	01300513          	li	a0,19
    80004a70:	00000097          	auipc	ra,0x0
    80004a74:	e68080e7          	jalr	-408(ra) # 800048d8 <_Z15syscall_wrapper5sysIDPvS0_S0_S0_>
    //Riscv::w_a0(save_a0);
}
    80004a78:	00813083          	ld	ra,8(sp)
    80004a7c:	00013403          	ld	s0,0(sp)
    80004a80:	01010113          	addi	sp,sp,16
    80004a84:	00008067          	ret

0000000080004a88 <sem_open>:

int sem_open(sem_t *handle, unsigned int init) {
    80004a88:	ff010113          	addi	sp,sp,-16
    80004a8c:	00113423          	sd	ra,8(sp)
    80004a90:	00813023          	sd	s0,0(sp)
    80004a94:	01010413          	addi	s0,sp,16
    return (int) syscall_wrapper(sysID::SEM_OPEN, (void *)handle, (void *)(uint64)init);
    80004a98:	00000713          	li	a4,0
    80004a9c:	00000693          	li	a3,0
    80004aa0:	02059613          	slli	a2,a1,0x20
    80004aa4:	02065613          	srli	a2,a2,0x20
    80004aa8:	00050593          	mv	a1,a0
    80004aac:	02100513          	li	a0,33
    80004ab0:	00000097          	auipc	ra,0x0
    80004ab4:	e28080e7          	jalr	-472(ra) # 800048d8 <_Z15syscall_wrapper5sysIDPvS0_S0_S0_>
}
    80004ab8:	0005051b          	sext.w	a0,a0
    80004abc:	00813083          	ld	ra,8(sp)
    80004ac0:	00013403          	ld	s0,0(sp)
    80004ac4:	01010113          	addi	sp,sp,16
    80004ac8:	00008067          	ret

0000000080004acc <sem_close>:

int sem_close(sem_t handle) {
    80004acc:	ff010113          	addi	sp,sp,-16
    80004ad0:	00113423          	sd	ra,8(sp)
    80004ad4:	00813023          	sd	s0,0(sp)
    80004ad8:	01010413          	addi	s0,sp,16
    80004adc:	00050593          	mv	a1,a0
    return (int) syscall_wrapper(sysID::SEM_CLOSE, handle);
    80004ae0:	00000713          	li	a4,0
    80004ae4:	00000693          	li	a3,0
    80004ae8:	00000613          	li	a2,0
    80004aec:	02200513          	li	a0,34
    80004af0:	00000097          	auipc	ra,0x0
    80004af4:	de8080e7          	jalr	-536(ra) # 800048d8 <_Z15syscall_wrapper5sysIDPvS0_S0_S0_>
}
    80004af8:	0005051b          	sext.w	a0,a0
    80004afc:	00813083          	ld	ra,8(sp)
    80004b00:	00013403          	ld	s0,0(sp)
    80004b04:	01010113          	addi	sp,sp,16
    80004b08:	00008067          	ret

0000000080004b0c <sem_wait>:

int sem_wait(sem_t id) {
    80004b0c:	ff010113          	addi	sp,sp,-16
    80004b10:	00113423          	sd	ra,8(sp)
    80004b14:	00813023          	sd	s0,0(sp)
    80004b18:	01010413          	addi	s0,sp,16
    80004b1c:	00050593          	mv	a1,a0
    return (int) syscall_wrapper(sysID::SEM_WAIT, (void *)id);
    80004b20:	00000713          	li	a4,0
    80004b24:	00000693          	li	a3,0
    80004b28:	00000613          	li	a2,0
    80004b2c:	02300513          	li	a0,35
    80004b30:	00000097          	auipc	ra,0x0
    80004b34:	da8080e7          	jalr	-600(ra) # 800048d8 <_Z15syscall_wrapper5sysIDPvS0_S0_S0_>
}
    80004b38:	0005051b          	sext.w	a0,a0
    80004b3c:	00813083          	ld	ra,8(sp)
    80004b40:	00013403          	ld	s0,0(sp)
    80004b44:	01010113          	addi	sp,sp,16
    80004b48:	00008067          	ret

0000000080004b4c <sem_signal>:

int sem_signal(sem_t id) {
    80004b4c:	ff010113          	addi	sp,sp,-16
    80004b50:	00113423          	sd	ra,8(sp)
    80004b54:	00813023          	sd	s0,0(sp)
    80004b58:	01010413          	addi	s0,sp,16
    80004b5c:	00050593          	mv	a1,a0
    return (int) syscall_wrapper(sysID::SEM_SIGNAL, (void *)id);
    80004b60:	00000713          	li	a4,0
    80004b64:	00000693          	li	a3,0
    80004b68:	00000613          	li	a2,0
    80004b6c:	02400513          	li	a0,36
    80004b70:	00000097          	auipc	ra,0x0
    80004b74:	d68080e7          	jalr	-664(ra) # 800048d8 <_Z15syscall_wrapper5sysIDPvS0_S0_S0_>
}
    80004b78:	0005051b          	sext.w	a0,a0
    80004b7c:	00813083          	ld	ra,8(sp)
    80004b80:	00013403          	ld	s0,0(sp)
    80004b84:	01010113          	addi	sp,sp,16
    80004b88:	00008067          	ret

0000000080004b8c <sem_timedwait>:

int sem_timedwait(sem_t id, time_t timeout) {
    if(timeout <= 0)return -2; // TIMEOUT
    80004b8c:	04058263          	beqz	a1,80004bd0 <sem_timedwait+0x44>
int sem_timedwait(sem_t id, time_t timeout) {
    80004b90:	ff010113          	addi	sp,sp,-16
    80004b94:	00113423          	sd	ra,8(sp)
    80004b98:	00813023          	sd	s0,0(sp)
    80004b9c:	01010413          	addi	s0,sp,16
    80004ba0:	00058613          	mv	a2,a1
    return (int)syscall_wrapper(sysID::SEM_TIMEDWAIT, (void *)id, (void *)timeout);
    80004ba4:	00000713          	li	a4,0
    80004ba8:	00000693          	li	a3,0
    80004bac:	00050593          	mv	a1,a0
    80004bb0:	02500513          	li	a0,37
    80004bb4:	00000097          	auipc	ra,0x0
    80004bb8:	d24080e7          	jalr	-732(ra) # 800048d8 <_Z15syscall_wrapper5sysIDPvS0_S0_S0_>
    80004bbc:	0005051b          	sext.w	a0,a0
}
    80004bc0:	00813083          	ld	ra,8(sp)
    80004bc4:	00013403          	ld	s0,0(sp)
    80004bc8:	01010113          	addi	sp,sp,16
    80004bcc:	00008067          	ret
    if(timeout <= 0)return -2; // TIMEOUT
    80004bd0:	ffe00513          	li	a0,-2
}
    80004bd4:	00008067          	ret

0000000080004bd8 <sem_trywait>:

int sem_trywait(sem_t id) {
    80004bd8:	ff010113          	addi	sp,sp,-16
    80004bdc:	00113423          	sd	ra,8(sp)
    80004be0:	00813023          	sd	s0,0(sp)
    80004be4:	01010413          	addi	s0,sp,16
    80004be8:	00050593          	mv	a1,a0
    return (int)syscall_wrapper(sysID::SEM_TRYWAIT, (void *)id);
    80004bec:	00000713          	li	a4,0
    80004bf0:	00000693          	li	a3,0
    80004bf4:	00000613          	li	a2,0
    80004bf8:	02600513          	li	a0,38
    80004bfc:	00000097          	auipc	ra,0x0
    80004c00:	cdc080e7          	jalr	-804(ra) # 800048d8 <_Z15syscall_wrapper5sysIDPvS0_S0_S0_>
}
    80004c04:	0005051b          	sext.w	a0,a0
    80004c08:	00813083          	ld	ra,8(sp)
    80004c0c:	00013403          	ld	s0,0(sp)
    80004c10:	01010113          	addi	sp,sp,16
    80004c14:	00008067          	ret

0000000080004c18 <time_sleep>:

int time_sleep(time_t time) {
    if(time <= 0) return -1;
    80004c18:	04050263          	beqz	a0,80004c5c <time_sleep+0x44>
int time_sleep(time_t time) {
    80004c1c:	ff010113          	addi	sp,sp,-16
    80004c20:	00113423          	sd	ra,8(sp)
    80004c24:	00813023          	sd	s0,0(sp)
    80004c28:	01010413          	addi	s0,sp,16
    80004c2c:	00050593          	mv	a1,a0
    return (int) syscall_wrapper(sysID::TIME_SLEEP, (void *)time);
    80004c30:	00000713          	li	a4,0
    80004c34:	00000693          	li	a3,0
    80004c38:	00000613          	li	a2,0
    80004c3c:	03100513          	li	a0,49
    80004c40:	00000097          	auipc	ra,0x0
    80004c44:	c98080e7          	jalr	-872(ra) # 800048d8 <_Z15syscall_wrapper5sysIDPvS0_S0_S0_>
    80004c48:	0005051b          	sext.w	a0,a0
}
    80004c4c:	00813083          	ld	ra,8(sp)
    80004c50:	00013403          	ld	s0,0(sp)
    80004c54:	01010113          	addi	sp,sp,16
    80004c58:	00008067          	ret
    if(time <= 0) return -1;
    80004c5c:	fff00513          	li	a0,-1
}
    80004c60:	00008067          	ret

0000000080004c64 <getc>:


char getc() {
    80004c64:	ff010113          	addi	sp,sp,-16
    80004c68:	00113423          	sd	ra,8(sp)
    80004c6c:	00813023          	sd	s0,0(sp)
    80004c70:	01010413          	addi	s0,sp,16
    return (char)syscall_wrapper(sysID::GET_C);
    80004c74:	00000713          	li	a4,0
    80004c78:	00000693          	li	a3,0
    80004c7c:	00000613          	li	a2,0
    80004c80:	00000593          	li	a1,0
    80004c84:	04100513          	li	a0,65
    80004c88:	00000097          	auipc	ra,0x0
    80004c8c:	c50080e7          	jalr	-944(ra) # 800048d8 <_Z15syscall_wrapper5sysIDPvS0_S0_S0_>
}
    80004c90:	0ff57513          	andi	a0,a0,255
    80004c94:	00813083          	ld	ra,8(sp)
    80004c98:	00013403          	ld	s0,0(sp)
    80004c9c:	01010113          	addi	sp,sp,16
    80004ca0:	00008067          	ret

0000000080004ca4 <putc>:

void putc(char c) {
    80004ca4:	ff010113          	addi	sp,sp,-16
    80004ca8:	00113423          	sd	ra,8(sp)
    80004cac:	00813023          	sd	s0,0(sp)
    80004cb0:	01010413          	addi	s0,sp,16
    80004cb4:	00050593          	mv	a1,a0
    syscall_wrapper(sysID::PUT_C, (void *)(uint64)c);
    80004cb8:	00000713          	li	a4,0
    80004cbc:	00000693          	li	a3,0
    80004cc0:	00000613          	li	a2,0
    80004cc4:	04200513          	li	a0,66
    80004cc8:	00000097          	auipc	ra,0x0
    80004ccc:	c10080e7          	jalr	-1008(ra) # 800048d8 <_Z15syscall_wrapper5sysIDPvS0_S0_S0_>
}
    80004cd0:	00813083          	ld	ra,8(sp)
    80004cd4:	00013403          	ld	s0,0(sp)
    80004cd8:	01010113          	addi	sp,sp,16
    80004cdc:	00008067          	ret

0000000080004ce0 <_ZN8Handlers14handleSyscallsEv>:
#include "../inc/_thread.hpp"
#include "../inc/_console.hpp"



void Handlers::handleSyscalls() {
    80004ce0:	e6010113          	addi	sp,sp,-416
    80004ce4:	18113c23          	sd	ra,408(sp)
    80004ce8:	18813823          	sd	s0,400(sp)
    80004cec:	1a010413          	addi	s0,sp,416
    __asm__ volatile ("mv %[a0], a0" : [a0] "=r"(a0));
    80004cf0:	00050793          	mv	a5,a0
    80004cf4:	e8f43c23          	sd	a5,-360(s0)
    return a0;
    80004cf8:	e9843783          	ld	a5,-360(s0)

    uint64 volatile sys_id = Riscv::r_a0();
    80004cfc:	fef43423          	sd	a5,-24(s0)
    __asm__ volatile ("mv a0, %[a0]" : : [a0] "r"(a0));
}

inline uint64 Riscv::r_a1() {
    uint64 volatile a1;
    __asm__ volatile ("mv %[a1], a1" : [a1] "=r"(a1));
    80004d00:	00058793          	mv	a5,a1
    80004d04:	e8f43823          	sd	a5,-368(s0)
    return a1;
    80004d08:	e9043783          	ld	a5,-368(s0)
    uint64 volatile a1, a2, a3, a4;
    a1 = Riscv::r_a1();
    80004d0c:	fef43023          	sd	a5,-32(s0)
    __asm__ volatile ("mv a1, %[a1]" : : [a1] "r"(a1));
}

inline uint64 Riscv::r_a2() {
    uint64 volatile a2;
    __asm__ volatile ("mv %[a2], a2" : [a2] "=r"(a2));
    80004d10:	00060793          	mv	a5,a2
    80004d14:	e8f43423          	sd	a5,-376(s0)
    return a2;
    80004d18:	e8843783          	ld	a5,-376(s0)
    a2 = Riscv::r_a2();
    80004d1c:	fcf43c23          	sd	a5,-40(s0)
    __asm__ volatile ("mv a2, %[a2]" : : [a2] "r"(a2));
}

inline uint64 Riscv::r_a3() {
    uint64 volatile a3;
    __asm__ volatile ("mv %[a3], a3" : [a3] "=r"(a3));
    80004d20:	00068793          	mv	a5,a3
    80004d24:	e8f43023          	sd	a5,-384(s0)
    return a3;
    80004d28:	e8043783          	ld	a5,-384(s0)
    a3 = Riscv::r_a3();
    80004d2c:	fcf43823          	sd	a5,-48(s0)
    __asm__ volatile ("mv a3, %[a3]" : : [a3] "r"(a3));
}

inline uint64 Riscv::r_a4() {
    uint64 volatile a4;
    __asm__ volatile ("mv %[a4], a4" : [a4] "=r"(a4));
    80004d30:	00070793          	mv	a5,a4
    80004d34:	e6f43c23          	sd	a5,-392(s0)
    return a4;
    80004d38:	e7843783          	ld	a5,-392(s0)
    a4 = Riscv::r_a4();
    80004d3c:	fcf43423          	sd	a5,-56(s0)

    uint64 volatile ret = 0;
    80004d40:	fc043023          	sd	zero,-64(s0)
    __asm__ volatile ("csrr %[sepc], sepc" : [sepc] "=r"(sepc));
    80004d44:	141027f3          	csrr	a5,sepc
    80004d48:	e6f43823          	sd	a5,-400(s0)
    return sepc;
    80004d4c:	e7043783          	ld	a5,-400(s0)

    uint64 volatile sepc = Riscv::r_sepc();
    80004d50:	faf43c23          	sd	a5,-72(s0)
    __asm__ volatile ("csrr %[sstatus], sstatus" : [sstatus] "=r"(sstatus));
    80004d54:	100027f3          	csrr	a5,sstatus
    80004d58:	e6f43423          	sd	a5,-408(s0)
    return sstatus;
    80004d5c:	e6843783          	ld	a5,-408(s0)
    uint64 volatile sstatus = Riscv::r_sstatus(); // implicitly save sstatus on stack
    80004d60:	faf43823          	sd	a5,-80(s0)
    __asm__ volatile ("csrr %[scause], scause" : [scause] "=r"(scause));
    80004d64:	142027f3          	csrr	a5,scause
    80004d68:	e6f43023          	sd	a5,-416(s0)
    return scause;
    80004d6c:	e6043783          	ld	a5,-416(s0)
    uint64 volatile cause = Riscv::r_scause();
    80004d70:	faf43423          	sd	a5,-88(s0)
    /// ecall from S mode or U mode
    if (cause != 0x0000000000000009UL && cause != 0x0000000000000008UL) {
    80004d74:	fa843703          	ld	a4,-88(s0)
    80004d78:	00900793          	li	a5,9
    80004d7c:	00f70863          	beq	a4,a5,80004d8c <_ZN8Handlers14handleSyscallsEv+0xac>
    80004d80:	fa843703          	ld	a4,-88(s0)
    80004d84:	00800793          	li	a5,8
    80004d88:	02f71a63          	bne	a4,a5,80004dbc <_ZN8Handlers14handleSyscallsEv+0xdc>
        Riscv::halt();
        return;
    }


    switch (sys_id) {
    80004d8c:	fe843783          	ld	a5,-24(s0)
    80004d90:	04200713          	li	a4,66
    80004d94:	30f76e63          	bltu	a4,a5,800050b0 <_ZN8Handlers14handleSyscallsEv+0x3d0>
    80004d98:	08078ee3          	beqz	a5,80005634 <_ZN8Handlers14handleSyscallsEv+0x954>
    80004d9c:	08f76ce3          	bltu	a4,a5,80005634 <_ZN8Handlers14handleSyscallsEv+0x954>
    80004da0:	00279793          	slli	a5,a5,0x2
    80004da4:	00005717          	auipc	a4,0x5
    80004da8:	7ec70713          	addi	a4,a4,2028 # 8000a590 <CONSOLE_STATUS+0x580>
    80004dac:	00e787b3          	add	a5,a5,a4
    80004db0:	0007a783          	lw	a5,0(a5)
    80004db4:	00e787b3          	add	a5,a5,a4
    80004db8:	00078067          	jr	a5
        printStringS("SCAUSE ERROR: Not syscall.\n");
    80004dbc:	00005517          	auipc	a0,0x5
    80004dc0:	6dc50513          	addi	a0,a0,1756 # 8000a498 <CONSOLE_STATUS+0x488>
    80004dc4:	00003097          	auipc	ra,0x3
    80004dc8:	d14080e7          	jalr	-748(ra) # 80007ad8 <_Z12printStringSPKc>
    Riscv::w_a1(mode); // 0 is user mode
    Riscv::ecall();
}

inline void Riscv::printStats() {
    printStringS("\t\t");
    80004dcc:	00005517          	auipc	a0,0x5
    80004dd0:	6ec50513          	addi	a0,a0,1772 # 8000a4b8 <CONSOLE_STATUS+0x4a8>
    80004dd4:	00003097          	auipc	ra,0x3
    80004dd8:	d04080e7          	jalr	-764(ra) # 80007ad8 <_Z12printStringSPKc>
    printStringS("scause: ");printIntS(r_scause(), 16);printStringS("\t");
    80004ddc:	00005517          	auipc	a0,0x5
    80004de0:	6e450513          	addi	a0,a0,1764 # 8000a4c0 <CONSOLE_STATUS+0x4b0>
    80004de4:	00003097          	auipc	ra,0x3
    80004de8:	cf4080e7          	jalr	-780(ra) # 80007ad8 <_Z12printStringSPKc>
    __asm__ volatile ("csrr %[scause], scause" : [scause] "=r"(scause));
    80004dec:	142027f3          	csrr	a5,scause
    80004df0:	eaf43023          	sd	a5,-352(s0)
    return scause;
