GAS LISTING /tmp/ccsgdHhk.s 			page 1


   1              		.file	"ConsoleBuffer.cpp"
   2              		.option pic
   3              		.option norelax
   4              		.text
   5              	.Ltext0:
   6              		.align	2
   7              		.globl	_ZN13ConsoleBufferC2Ei
   9              	_ZN13ConsoleBufferC2Ei:
  10              	.LFB54:
  11              		.file 1 "src/ConsoleBuffer.cpp"
   1:src/ConsoleBuffer.cpp **** //
   2:src/ConsoleBuffer.cpp **** // Created by os on 5/20/24.
   3:src/ConsoleBuffer.cpp **** //
   4:src/ConsoleBuffer.cpp **** 
   5:src/ConsoleBuffer.cpp **** #include "../inc/ConsoleBuffer.hpp"
   6:src/ConsoleBuffer.cpp **** #include "../inc/_sem.hpp"
   7:src/ConsoleBuffer.cpp **** 
   8:src/ConsoleBuffer.cpp **** ConsoleBuffer::ConsoleBuffer(int _cap) : cap(_cap + 1), head(0), tail(0) {
  12              		.loc 1 8 1
  13              		.cfi_startproc
  14              	.LVL0:
  15 0000 130101FE 		addi	sp,sp,-32
  16              		.cfi_def_cfa_offset 32
  17 0004 233C1100 		sd	ra,24(sp)
  18 0008 23388100 		sd	s0,16(sp)
  19 000c 23349100 		sd	s1,8(sp)
  20 0010 23302101 		sd	s2,0(sp)
  21              		.cfi_offset 1, -8
  22              		.cfi_offset 8, -16
  23              		.cfi_offset 9, -24
  24              		.cfi_offset 18, -32
  25 0014 13040102 		addi	s0,sp,32
  26              		.cfi_def_cfa 8, 0
  27 0018 93040500 		mv	s1,a0
  28 001c 13890500 		mv	s2,a1
  29              	.LBB2:
  30              		.loc 1 8 51 is_stmt 0
  31 0020 1B851500 		addiw	a0,a1,1
  32              	.LVL1:
  33              		.loc 1 8 72
  34 0024 23A0A400 		sw	a0,0(s1)
  35 0028 23A80400 		sw	zero,16(s1)
  36 002c 23AA0400 		sw	zero,20(s1)
   9:src/ConsoleBuffer.cpp ****     buffer = (char *)mem_alloc(sizeof(char) * cap);
  37              		.loc 1 9 5 is_stmt 1
  38              		.loc 1 9 31 is_stmt 0
  39 0030 1B050500 		sext.w	a0,a0
  40 0034 97000000 		call	mem_alloc@plt
  40      E7800000 
  41              	.LVL2:
  42              		.loc 1 9 12
  43 003c 23B4A400 		sd	a0,8(s1)
  10:src/ConsoleBuffer.cpp **** 
  11:src/ConsoleBuffer.cpp ****     sem_open(&itemAvailable, 0);
  44              		.loc 1 11 5 is_stmt 1
  45              		.loc 1 11 13 is_stmt 0
  46 0040 93050000 		li	a1,0
GAS LISTING /tmp/ccsgdHhk.s 			page 2


  47 0044 13850402 		addi	a0,s1,32
  48 0048 97000000 		call	sem_open@plt
  48      E7800000 
  49              	.LVL3:
  12:src/ConsoleBuffer.cpp ****     sem_open(&spaceAvailable, _cap);
  50              		.loc 1 12 5 is_stmt 1
  51              		.loc 1 12 13 is_stmt 0
  52 0050 93050900 		mv	a1,s2
  53 0054 13858401 		addi	a0,s1,24
  54 0058 97000000 		call	sem_open@plt
  54      E7800000 
  55              	.LVL4:
  56              	.LBE2:
  13:src/ConsoleBuffer.cpp **** 
  14:src/ConsoleBuffer.cpp **** }
  57              		.loc 1 14 1
  58 0060 83308101 		ld	ra,24(sp)
  59              		.cfi_restore 1
  60 0064 03340101 		ld	s0,16(sp)
  61              		.cfi_restore 8
  62              		.cfi_def_cfa 2, 32
  63 0068 83348100 		ld	s1,8(sp)
  64              		.cfi_restore 9
  65              	.LVL5:
  66 006c 03390100 		ld	s2,0(sp)
  67              		.cfi_restore 18
  68 0070 13010102 		addi	sp,sp,32
  69              		.cfi_def_cfa_offset 0
  70 0074 67800000 		jr	ra
  71              		.cfi_endproc
  72              	.LFE54:
  74              		.globl	_ZN13ConsoleBufferC1Ei
  75              		.set	_ZN13ConsoleBufferC1Ei,_ZN13ConsoleBufferC2Ei
  76              		.align	2
  77              		.globl	_ZN13ConsoleBuffer3putEc
  79              	_ZN13ConsoleBuffer3putEc:
  80              	.LFB59:
  15:src/ConsoleBuffer.cpp **** 
  16:src/ConsoleBuffer.cpp **** ConsoleBuffer::~ConsoleBuffer() {
  17:src/ConsoleBuffer.cpp **** 
  18:src/ConsoleBuffer.cpp **** 
  19:src/ConsoleBuffer.cpp ****     while (getCnt()) {
  20:src/ConsoleBuffer.cpp ****         head = (head + 1) % cap;
  21:src/ConsoleBuffer.cpp ****     }
  22:src/ConsoleBuffer.cpp **** 
  23:src/ConsoleBuffer.cpp ****     mem_free(buffer);
  24:src/ConsoleBuffer.cpp ****     sem_close(itemAvailable);
  25:src/ConsoleBuffer.cpp ****     sem_close(spaceAvailable);
  26:src/ConsoleBuffer.cpp **** 
  27:src/ConsoleBuffer.cpp **** }
  28:src/ConsoleBuffer.cpp **** 
  29:src/ConsoleBuffer.cpp **** void ConsoleBuffer::put(char val) {
  81              		.loc 1 29 35 is_stmt 1
  82              		.cfi_startproc
  83              	.LVL6:
  84 0078 130101FE 		addi	sp,sp,-32
  85              		.cfi_def_cfa_offset 32
GAS LISTING /tmp/ccsgdHhk.s 			page 3


  86 007c 233C1100 		sd	ra,24(sp)
  87 0080 23388100 		sd	s0,16(sp)
  88 0084 23349100 		sd	s1,8(sp)
  89 0088 23302101 		sd	s2,0(sp)
  90              		.cfi_offset 1, -8
  91              		.cfi_offset 8, -16
  92              		.cfi_offset 9, -24
  93              		.cfi_offset 18, -32
  94 008c 13040102 		addi	s0,sp,32
  95              		.cfi_def_cfa 8, 0
  96 0090 93040500 		mv	s1,a0
  97 0094 13890500 		mv	s2,a1
  30:src/ConsoleBuffer.cpp **** 
  31:src/ConsoleBuffer.cpp ****     spaceAvailable->semWait();
  98              		.loc 1 31 5
  99              		.loc 1 31 28 is_stmt 0
 100 0098 13060000 		li	a2,0
 101 009c 93050000 		li	a1,0
 102              	.LVL7:
 103 00a0 03358501 		ld	a0,24(a0)
 104              	.LVL8:
 105 00a4 97000000 		call	_ZN4_sem7semWaitEmb@plt
 105      E7800000 
 106              	.LVL9:
  32:src/ConsoleBuffer.cpp **** 
  33:src/ConsoleBuffer.cpp **** 
  34:src/ConsoleBuffer.cpp ****     buffer[tail] = val;
 107              		.loc 1 34 5 is_stmt 1
 108 00ac 83B78400 		ld	a5,8(s1)
 109              		.loc 1 34 12 is_stmt 0
 110 00b0 03A74401 		lw	a4,20(s1)
 111              		.loc 1 34 16
 112 00b4 B387E700 		add	a5,a5,a4
 113              		.loc 1 34 18
 114 00b8 23802701 		sb	s2,0(a5)
  35:src/ConsoleBuffer.cpp ****     tail = (tail + 1) % cap;
 115              		.loc 1 35 5 is_stmt 1
 116              		.loc 1 35 13 is_stmt 0
 117 00bc 83A74401 		lw	a5,20(s1)
 118              		.loc 1 35 18
 119 00c0 9B871700 		addiw	a5,a5,1
 120              		.loc 1 35 25
 121 00c4 03A70400 		lw	a4,0(s1)
 122              		.loc 1 35 23
 123 00c8 BBE7E702 		remw	a5,a5,a4
 124              		.loc 1 35 10
 125 00cc 23AAF400 		sw	a5,20(s1)
  36:src/ConsoleBuffer.cpp **** 
  37:src/ConsoleBuffer.cpp **** 
  38:src/ConsoleBuffer.cpp ****     itemAvailable->semSignal();
 126              		.loc 1 38 5 is_stmt 1
 127              		.loc 1 38 29 is_stmt 0
 128 00d0 03B50402 		ld	a0,32(s1)
 129 00d4 97000000 		call	_ZN4_sem9semSignalEv@plt
 129      E7800000 
 130              	.LVL10:
  39:src/ConsoleBuffer.cpp **** 
GAS LISTING /tmp/ccsgdHhk.s 			page 4


  40:src/ConsoleBuffer.cpp **** }
 131              		.loc 1 40 1
 132 00dc 83308101 		ld	ra,24(sp)
 133              		.cfi_restore 1
 134 00e0 03340101 		ld	s0,16(sp)
 135              		.cfi_restore 8
 136              		.cfi_def_cfa 2, 32
 137 00e4 83348100 		ld	s1,8(sp)
 138              		.cfi_restore 9
 139              	.LVL11:
 140 00e8 03390100 		ld	s2,0(sp)
 141              		.cfi_restore 18
 142 00ec 13010102 		addi	sp,sp,32
 143              		.cfi_def_cfa_offset 0
 144 00f0 67800000 		jr	ra
 145              		.cfi_endproc
 146              	.LFE59:
 148              		.align	2
 149              		.globl	_ZN13ConsoleBuffer3getEv
 151              	_ZN13ConsoleBuffer3getEv:
 152              	.LFB60:
  41:src/ConsoleBuffer.cpp **** 
  42:src/ConsoleBuffer.cpp **** char ConsoleBuffer::get() {
 153              		.loc 1 42 27 is_stmt 1
 154              		.cfi_startproc
 155              	.LVL12:
 156 00f4 130101FE 		addi	sp,sp,-32
 157              		.cfi_def_cfa_offset 32
 158 00f8 233C1100 		sd	ra,24(sp)
 159 00fc 23388100 		sd	s0,16(sp)
 160 0100 23349100 		sd	s1,8(sp)
 161 0104 23302101 		sd	s2,0(sp)
 162              		.cfi_offset 1, -8
 163              		.cfi_offset 8, -16
 164              		.cfi_offset 9, -24
 165              		.cfi_offset 18, -32
 166 0108 13040102 		addi	s0,sp,32
 167              		.cfi_def_cfa 8, 0
 168 010c 93040500 		mv	s1,a0
  43:src/ConsoleBuffer.cpp **** 
  44:src/ConsoleBuffer.cpp ****     itemAvailable->semWait();
 169              		.loc 1 44 5
 170              		.loc 1 44 27 is_stmt 0
 171 0110 13060000 		li	a2,0
 172 0114 93050000 		li	a1,0
 173 0118 03350502 		ld	a0,32(a0)
 174              	.LVL13:
 175 011c 97000000 		call	_ZN4_sem7semWaitEmb@plt
 175      E7800000 
 176              	.LVL14:
  45:src/ConsoleBuffer.cpp **** 
  46:src/ConsoleBuffer.cpp **** 
  47:src/ConsoleBuffer.cpp **** 
  48:src/ConsoleBuffer.cpp ****     char ret = buffer[head];
 177              		.loc 1 48 5 is_stmt 1
 178              		.loc 1 48 16 is_stmt 0
 179 0124 03B78400 		ld	a4,8(s1)
GAS LISTING /tmp/ccsgdHhk.s 			page 5


 180              		.loc 1 48 23
 181 0128 83A70401 		lw	a5,16(s1)
 182              		.loc 1 48 27
 183 012c 3307F700 		add	a4,a4,a5
 184              		.loc 1 48 10
 185 0130 03490700 		lbu	s2,0(a4)
 186              	.LVL15:
  49:src/ConsoleBuffer.cpp ****     head = (head + 1) % cap;
 187              		.loc 1 49 5 is_stmt 1
 188              		.loc 1 49 18 is_stmt 0
 189 0134 9B871700 		addiw	a5,a5,1
 190              		.loc 1 49 25
 191 0138 03A70400 		lw	a4,0(s1)
 192              		.loc 1 49 23
 193 013c BBE7E702 		remw	a5,a5,a4
 194              		.loc 1 49 10
 195 0140 23A8F400 		sw	a5,16(s1)
  50:src/ConsoleBuffer.cpp **** 
  51:src/ConsoleBuffer.cpp **** 
  52:src/ConsoleBuffer.cpp ****     spaceAvailable->semSignal();
 196              		.loc 1 52 5 is_stmt 1
 197              		.loc 1 52 30 is_stmt 0
 198 0144 03B58401 		ld	a0,24(s1)
 199 0148 97000000 		call	_ZN4_sem9semSignalEv@plt
 199      E7800000 
 200              	.LVL16:
  53:src/ConsoleBuffer.cpp **** 
  54:src/ConsoleBuffer.cpp ****     return ret;
 201              		.loc 1 54 5 is_stmt 1
  55:src/ConsoleBuffer.cpp **** }
 202              		.loc 1 55 1 is_stmt 0
 203 0150 13050900 		mv	a0,s2
 204 0154 83308101 		ld	ra,24(sp)
 205              		.cfi_restore 1
 206 0158 03340101 		ld	s0,16(sp)
 207              		.cfi_restore 8
 208              		.cfi_def_cfa 2, 32
 209 015c 83348100 		ld	s1,8(sp)
 210              		.cfi_restore 9
 211              	.LVL17:
 212 0160 03390100 		ld	s2,0(sp)
 213              		.cfi_restore 18
 214              	.LVL18:
 215 0164 13010102 		addi	sp,sp,32
 216              		.cfi_def_cfa_offset 0
 217 0168 67800000 		jr	ra
 218              		.cfi_endproc
 219              	.LFE60:
 221              		.align	2
 222              		.globl	_ZN13ConsoleBuffer6getCntEv
 224              	_ZN13ConsoleBuffer6getCntEv:
 225              	.LFB61:
  56:src/ConsoleBuffer.cpp **** 
  57:src/ConsoleBuffer.cpp **** int ConsoleBuffer::getCnt() {
 226              		.loc 1 57 29 is_stmt 1
 227              		.cfi_startproc
 228              	.LVL19:
GAS LISTING /tmp/ccsgdHhk.s 			page 6


 229 016c 130101FF 		addi	sp,sp,-16
 230              		.cfi_def_cfa_offset 16
 231 0170 23348100 		sd	s0,8(sp)
 232              		.cfi_offset 8, -8
 233 0174 13040101 		addi	s0,sp,16
 234              		.cfi_def_cfa 8, 0
  58:src/ConsoleBuffer.cpp ****     int ret;
 235              		.loc 1 58 5
  59:src/ConsoleBuffer.cpp **** 
  60:src/ConsoleBuffer.cpp ****     if (tail >= head) {
 236              		.loc 1 60 5
 237              		.loc 1 60 9 is_stmt 0
 238 0178 83274501 		lw	a5,20(a0)
 239              		.loc 1 60 17
 240 017c 03270501 		lw	a4,16(a0)
 241              		.loc 1 60 5
 242 0180 63CAE700 		blt	a5,a4,.L8
  61:src/ConsoleBuffer.cpp ****         ret = tail - head;
 243              		.loc 1 61 9 is_stmt 1
 244              		.loc 1 61 13 is_stmt 0
 245 0184 3B85E740 		subw	a0,a5,a4
 246              	.LVL20:
 247              	.L9:
  62:src/ConsoleBuffer.cpp ****     } else {
  63:src/ConsoleBuffer.cpp ****         ret = cap - head + tail;
  64:src/ConsoleBuffer.cpp ****     }
  65:src/ConsoleBuffer.cpp **** 
  66:src/ConsoleBuffer.cpp **** 
  67:src/ConsoleBuffer.cpp **** 
  68:src/ConsoleBuffer.cpp ****     return ret;
 248              		.loc 1 68 5 is_stmt 1
  69:src/ConsoleBuffer.cpp **** }
 249              		.loc 1 69 1 is_stmt 0
 250 0188 03348100 		ld	s0,8(sp)
 251              		.cfi_remember_state
 252              		.cfi_restore 8
 253              		.cfi_def_cfa 2, 16
 254 018c 13010101 		addi	sp,sp,16
 255              		.cfi_def_cfa_offset 0
 256 0190 67800000 		jr	ra
 257              	.LVL21:
 258              	.L8:
 259              		.cfi_restore_state
  63:src/ConsoleBuffer.cpp ****     }
 260              		.loc 1 63 9 is_stmt 1
  63:src/ConsoleBuffer.cpp ****     }
 261              		.loc 1 63 15 is_stmt 0
 262 0194 03250500 		lw	a0,0(a0)
 263              	.LVL22:
  63:src/ConsoleBuffer.cpp ****     }
 264              		.loc 1 63 19
 265 0198 3B05E540 		subw	a0,a0,a4
  63:src/ConsoleBuffer.cpp ****     }
 266              		.loc 1 63 13
 267 019c 3B05F500 		addw	a0,a0,a5
 268              	.LVL23:
 269 01a0 6FF09FFE 		j	.L9
GAS LISTING /tmp/ccsgdHhk.s 			page 7


 270              		.cfi_endproc
 271              	.LFE61:
 273              		.align	2
 274              		.globl	_ZN13ConsoleBufferD2Ev
 276              	_ZN13ConsoleBufferD2Ev:
 277              	.LFB57:
  16:src/ConsoleBuffer.cpp **** 
 278              		.loc 1 16 1 is_stmt 1
 279              		.cfi_startproc
 280              		.cfi_personality 0x9b,DW.ref.__gxx_personality_v0
 281              		.cfi_lsda 0x1b,.LLSDA57
 282              	.LVL24:
 283 01a4 130101FE 		addi	sp,sp,-32
 284              		.cfi_def_cfa_offset 32
 285 01a8 233C1100 		sd	ra,24(sp)
 286 01ac 23388100 		sd	s0,16(sp)
 287 01b0 23349100 		sd	s1,8(sp)
 288              		.cfi_offset 1, -8
 289              		.cfi_offset 8, -16
 290              		.cfi_offset 9, -24
 291 01b4 13040102 		addi	s0,sp,32
 292              		.cfi_def_cfa 8, 0
 293 01b8 93040500 		mv	s1,a0
 294              	.LVL25:
 295              	.L13:
 296              	.LBB3:
  19:src/ConsoleBuffer.cpp ****         head = (head + 1) % cap;
 297              		.loc 1 19 5
  19:src/ConsoleBuffer.cpp ****         head = (head + 1) % cap;
 298              		.loc 1 19 19
  19:src/ConsoleBuffer.cpp ****         head = (head + 1) % cap;
 299              		.loc 1 19 18 is_stmt 0
 300 01bc 13850400 		mv	a0,s1
 301 01c0 97000000 		call	_ZN13ConsoleBuffer6getCntEv
 301      E7800000 
 302              	.LVL26:
  19:src/ConsoleBuffer.cpp ****         head = (head + 1) % cap;
 303              		.loc 1 19 19
 304 01c8 630E0500 		beqz	a0,.L12
  20:src/ConsoleBuffer.cpp ****     }
 305              		.loc 1 20 9 is_stmt 1
  20:src/ConsoleBuffer.cpp ****     }
 306              		.loc 1 20 17 is_stmt 0
 307 01cc 83A70401 		lw	a5,16(s1)
  20:src/ConsoleBuffer.cpp ****     }
 308              		.loc 1 20 22
 309 01d0 9B871700 		addiw	a5,a5,1
  20:src/ConsoleBuffer.cpp ****     }
 310              		.loc 1 20 29
 311 01d4 03A70400 		lw	a4,0(s1)
  20:src/ConsoleBuffer.cpp ****     }
 312              		.loc 1 20 27
 313 01d8 BBE7E702 		remw	a5,a5,a4
  20:src/ConsoleBuffer.cpp ****     }
 314              		.loc 1 20 14
 315 01dc 23A8F400 		sw	a5,16(s1)
  19:src/ConsoleBuffer.cpp ****         head = (head + 1) % cap;
GAS LISTING /tmp/ccsgdHhk.s 			page 8


 316              		.loc 1 19 5
 317 01e0 6FF0DFFD 		j	.L13
 318              	.L12:
  23:src/ConsoleBuffer.cpp ****     sem_close(itemAvailable);
 319              		.loc 1 23 5 is_stmt 1
  23:src/ConsoleBuffer.cpp ****     sem_close(itemAvailable);
 320              		.loc 1 23 13 is_stmt 0
 321 01e4 03B58400 		ld	a0,8(s1)
 322 01e8 97000000 		call	mem_free@plt
 322      E7800000 
 323              	.LVL27:
  24:src/ConsoleBuffer.cpp ****     sem_close(spaceAvailable);
 324              		.loc 1 24 5 is_stmt 1
  24:src/ConsoleBuffer.cpp ****     sem_close(spaceAvailable);
 325              		.loc 1 24 14 is_stmt 0
 326 01f0 03B50402 		ld	a0,32(s1)
 327 01f4 97000000 		call	sem_close@plt
 327      E7800000 
 328              	.LVL28:
  25:src/ConsoleBuffer.cpp **** 
 329              		.loc 1 25 5 is_stmt 1
  25:src/ConsoleBuffer.cpp **** 
 330              		.loc 1 25 14 is_stmt 0
 331 01fc 03B58401 		ld	a0,24(s1)
 332 0200 97000000 		call	sem_close@plt
 332      E7800000 
 333              	.LVL29:
 334              	.LBE3:
  27:src/ConsoleBuffer.cpp **** 
 335              		.loc 1 27 1
 336 0208 83308101 		ld	ra,24(sp)
 337              		.cfi_restore 1
 338 020c 03340101 		ld	s0,16(sp)
 339              		.cfi_restore 8
 340              		.cfi_def_cfa 2, 32
 341 0210 83348100 		ld	s1,8(sp)
 342              		.cfi_restore 9
 343              	.LVL30:
 344 0214 13010102 		addi	sp,sp,32
 345              		.cfi_def_cfa_offset 0
 346 0218 67800000 		jr	ra
 347              		.cfi_endproc
 348              	.LFE57:
 349              		.globl	__gxx_personality_v0
 350              		.section	.gcc_except_table,"a",@progbits
 351              	.LLSDA57:
 352 0000 FF       		.byte	0xff
 353 0001 FF       		.byte	0xff
 354 0002 03       		.byte	0x3
 355 0003 00       		.byte	0
 356              		.text
 358              		.globl	_ZN13ConsoleBufferD1Ev
 359              		.set	_ZN13ConsoleBufferD1Ev,_ZN13ConsoleBufferD2Ev
 360              	.Letext0:
 361              		.file 2 "src/../inc/../inc/../lib/hw.h"
 362              		.file 3 "src/../inc/../inc/syscall_c.hpp"
 363              		.file 4 "src/../inc/../inc/_thread.hpp"
GAS LISTING /tmp/ccsgdHhk.s 			page 9


 364              		.file 5 "src/../inc/_sem.hpp"
 365              		.file 6 "src/../inc/ConsoleBuffer.hpp"
 366              		.file 7 "src/../inc/../inc/List.hpp"
 367              		.file 8 "src/../inc/../inc/../inc/List_sorted.hpp"
 3809              		.align	3
 3812              	DW.ref.__gxx_personality_v0:
 3813 0000 00000000 		.dword	__gxx_personality_v0
 3813      00000000 
 3814              		.ident	"GCC: (Ubuntu 9.3.0-17ubuntu1~20.04) 9.3.0"
 3815              		.section	.note.GNU-stack,"",@progbits
GAS LISTING /tmp/ccsgdHhk.s 			page 10

