GAS LISTING /tmp/ccb4Yeeq.s 			page 1


   1              		.file	"Handlers.cpp"
   2              		.option pic
   3              		.option norelax
   4              		.text
   5              	.Ltext0:
   6              		.section	.rodata.str1.8,"aMS",@progbits,1
   7              		.align	3
   8              	.LC0:
   9 0000 53434155 		.string	"SCAUSE ERROR: Not syscall.\n"
   9      53452045 
   9      52524F52 
   9      3A204E6F 
   9      74207379 
  10 001c 00000000 		.align	3
  11              	.LC1:
  12 0020 090900   		.string	"\t\t"
  13 0023 00000000 		.align	3
  13      00
  14              	.LC2:
  15 0028 73636175 		.string	"scause: "
  15      73653A20 
  15      00
  16 0031 00000000 		.align	3
  16      000000
  17              	.LC3:
  18 0038 0900     		.string	"\t"
  19 003a 00000000 		.align	3
  19      0000
  20              	.LC4:
  21 0040 73737461 		.string	"sstatus: "
  21      7475733A 
  21      2000
  22 004a 00000000 		.align	3
  22      0000
  23              	.LC5:
  24 0050 73657063 		.string	"sepc: "
  24      3A2000
  25 0057 00       		.align	3
  26              	.LC6:
  27 0058 7369703A 		.string	"sip: "
  27      2000
  28 005e 0000     		.align	3
  29              	.LC7:
  30 0060 73747661 		.string	"stval: "
  30      6C3A2000 
  31              		.align	3
  32              	.LC8:
  33 0068 73747665 		.string	"stvec: "
  33      633A2000 
  34              		.align	3
  35              	.LC9:
  36 0070 0A090900 		.string	"\n\t\t"
  37 0074 00000000 		.align	3
  38              	.LC10:
  39 0078 61303A20 		.string	"a0: "
  39      00
  40 007d 000000   		.align	3
GAS LISTING /tmp/ccb4Yeeq.s 			page 2


  41              	.LC11:
  42 0080 61313A20 		.string	"a1: "
  42      00
  43 0085 000000   		.align	3
  44              	.LC12:
  45 0088 61323A20 		.string	"a2: "
  45      00
  46 008d 000000   		.align	3
  47              	.LC13:
  48 0090 61333A20 		.string	"a3: "
  48      00
  49 0095 000000   		.align	3
  50              	.LC14:
  51 0098 61343A20 		.string	"a4: "
  51      00
  52 009d 000000   		.align	3
  53              	.LC15:
  54 00a0 73797349 		.string	"sysID::CHANGE_MODE ERROR: Change not granted.\n"
  54      443A3A43 
  54      48414E47 
  54      455F4D4F 
  54      44452045 
  55 00cf 00       		.align	3
  56              	.LC16:
  57 00d0 4552524F 		.string	"ERROR: handleSyscalls.switch.default: \n"
  57      523A2068 
  57      616E646C 
  57      65537973 
  57      63616C6C 
  58              		.text
  59              		.align	2
  60              		.globl	_ZN8Handlers14handleSyscallsEv
  62              	_ZN8Handlers14handleSyscallsEv:
  63              	.LFB84:
  64              		.file 1 "src/Handlers.cpp"
   1:src/Handlers.cpp **** //
   2:src/Handlers.cpp **** // Created by os on 4/29/24.
   3:src/Handlers.cpp **** //
   4:src/Handlers.cpp **** #include "../inc/Handlers.hpp"
   5:src/Handlers.cpp **** #include "../inc/syscall_c.hpp"
   6:src/Handlers.cpp **** #include "../inc/riscv.hpp"
   7:src/Handlers.cpp **** #include "../inc/_thread.hpp"
   8:src/Handlers.cpp **** #include "../inc/_console.hpp"
   9:src/Handlers.cpp **** 
  10:src/Handlers.cpp **** 
  11:src/Handlers.cpp **** 
  12:src/Handlers.cpp **** void Handlers::handleSyscalls() {
  65              		.loc 1 12 33
  66              		.cfi_startproc
  67 0000 130101E6 		addi	sp,sp,-416
  68              		.cfi_def_cfa_offset 416
  69 0004 233C1118 		sd	ra,408(sp)
  70 0008 23388118 		sd	s0,400(sp)
  71              		.cfi_offset 1, -8
  72              		.cfi_offset 8, -16
  73 000c 1304011A 		addi	s0,sp,416
  74              		.cfi_def_cfa 8, 0
GAS LISTING /tmp/ccb4Yeeq.s 			page 3


  13:src/Handlers.cpp **** 
  14:src/Handlers.cpp ****     uint64 volatile sys_id = Riscv::r_a0();
  75              		.loc 1 14 5
  76              	.LBB194:
  77              	.LBB195:
  78              		.file 2 "src/../inc/riscv.hpp"
   1:src/../inc/riscv.hpp **** //
   2:src/../inc/riscv.hpp **** // Created by marko on 20.4.22..
   3:src/../inc/riscv.hpp **** //
   4:src/../inc/riscv.hpp **** 
   5:src/../inc/riscv.hpp **** #ifndef OS1_VEZBE07_RISCV_CONTEXT_SWITCH_1_SYNCHRONOUS_RISCV_HPP
   6:src/../inc/riscv.hpp **** #define OS1_VEZBE07_RISCV_CONTEXT_SWITCH_1_SYNCHRONOUS_RISCV_HPP
   7:src/../inc/riscv.hpp **** 
   8:src/../inc/riscv.hpp **** #include "../lib/hw.h"
   9:src/../inc/riscv.hpp **** #include "../inc/printingSupervisor.hpp"
  10:src/../inc/riscv.hpp **** #include "../inc/sysID.hpp"
  11:src/../inc/riscv.hpp **** #include "../inc/MemoryAllocator.hpp"
  12:src/../inc/riscv.hpp **** class Riscv
  13:src/../inc/riscv.hpp **** {
  14:src/../inc/riscv.hpp **** public:
  15:src/../inc/riscv.hpp ****     friend class Handlers;
  16:src/../inc/riscv.hpp **** //    // pop sstatus.spp and sstatus.spie bits (has to be a non inline function)
  17:src/../inc/riscv.hpp ****     static void popSstatusSPPandSPIE(bool swToUsr);
  18:src/../inc/riscv.hpp ****     enum Mode{
  19:src/../inc/riscv.hpp ****         USER, SUPERVISOR
  20:src/../inc/riscv.hpp ****     };
  21:src/../inc/riscv.hpp ****     static void changeMode(Mode mode);
  22:src/../inc/riscv.hpp **** 
  23:src/../inc/riscv.hpp ****     static void printStats();
  24:src/../inc/riscv.hpp ****     //
  25:src/../inc/riscv.hpp **** //    // push x3..x31 registers onto stack
  26:src/../inc/riscv.hpp **** //    static void pushRegisters();
  27:src/../inc/riscv.hpp **** //
  28:src/../inc/riscv.hpp **** //    // pop x3..x31 registers onto stack
  29:src/../inc/riscv.hpp **** //    static void popRegisters();
  30:src/../inc/riscv.hpp **** 
  31:src/../inc/riscv.hpp ****     // read register scause
  32:src/../inc/riscv.hpp ****     static uint64 r_scause();
  33:src/../inc/riscv.hpp **** 
  34:src/../inc/riscv.hpp ****     // write register scause
  35:src/../inc/riscv.hpp ****     static void w_scause(uint64 scause);
  36:src/../inc/riscv.hpp **** 
  37:src/../inc/riscv.hpp ****     // read register sepc
  38:src/../inc/riscv.hpp ****     static uint64 r_sepc();
  39:src/../inc/riscv.hpp **** 
  40:src/../inc/riscv.hpp ****     // write register sepc
  41:src/../inc/riscv.hpp ****     static void w_sepc(uint64 sepc);
  42:src/../inc/riscv.hpp **** 
  43:src/../inc/riscv.hpp ****     // read register stvec
  44:src/../inc/riscv.hpp ****     static uint64 r_stvec();
  45:src/../inc/riscv.hpp **** 
  46:src/../inc/riscv.hpp ****     // write register stvec
  47:src/../inc/riscv.hpp ****     static void w_stvec(uint64 stvec);
  48:src/../inc/riscv.hpp **** 
  49:src/../inc/riscv.hpp ****     // read register stval
  50:src/../inc/riscv.hpp ****     static uint64 r_stval();
  51:src/../inc/riscv.hpp **** 
GAS LISTING /tmp/ccb4Yeeq.s 			page 4


  52:src/../inc/riscv.hpp ****     // write register stval
  53:src/../inc/riscv.hpp ****     static void w_stval(uint64 stval);
  54:src/../inc/riscv.hpp **** 
  55:src/../inc/riscv.hpp ****     enum BitMaskSip
  56:src/../inc/riscv.hpp ****     {
  57:src/../inc/riscv.hpp ****         SIP_SSIE = (1 << 1),
  58:src/../inc/riscv.hpp ****         SIP_STIE = (1 << 5),
  59:src/../inc/riscv.hpp ****         SIP_SEIE = (1 << 9),
  60:src/../inc/riscv.hpp ****     };
  61:src/../inc/riscv.hpp **** 
  62:src/../inc/riscv.hpp ****     // mask set register sip
  63:src/../inc/riscv.hpp ****     static void ms_sip(uint64 mask);
  64:src/../inc/riscv.hpp **** 
  65:src/../inc/riscv.hpp ****     // mask clear register sip
  66:src/../inc/riscv.hpp ****     static void mc_sip(uint64 mask);
  67:src/../inc/riscv.hpp **** 
  68:src/../inc/riscv.hpp ****     // read register sip
  69:src/../inc/riscv.hpp ****     static uint64 r_sip();
  70:src/../inc/riscv.hpp **** 
  71:src/../inc/riscv.hpp ****     // write register sip
  72:src/../inc/riscv.hpp ****     static void w_sip(uint64 sip);
  73:src/../inc/riscv.hpp **** 
  74:src/../inc/riscv.hpp ****     enum BitMaskSstatus
  75:src/../inc/riscv.hpp ****     {
  76:src/../inc/riscv.hpp ****         SSTATUS_SIE = (1 << 1),
  77:src/../inc/riscv.hpp ****         SSTATUS_SPIE = (1 << 5),
  78:src/../inc/riscv.hpp ****         SSTATUS_SPP = (1 << 8),
  79:src/../inc/riscv.hpp ****     };
  80:src/../inc/riscv.hpp **** 
  81:src/../inc/riscv.hpp ****     // mask set register sstatus
  82:src/../inc/riscv.hpp ****     static void ms_sstatus(uint64 mask);
  83:src/../inc/riscv.hpp **** 
  84:src/../inc/riscv.hpp ****     // mask clear register sstatus
  85:src/../inc/riscv.hpp ****     static void mc_sstatus(uint64 mask);
  86:src/../inc/riscv.hpp **** 
  87:src/../inc/riscv.hpp ****     // read register sstatus
  88:src/../inc/riscv.hpp ****     static uint64 r_sstatus();
  89:src/../inc/riscv.hpp **** 
  90:src/../inc/riscv.hpp ****     // write register sstatus
  91:src/../inc/riscv.hpp ****     static void w_sstatus(uint64 sstatus);
  92:src/../inc/riscv.hpp **** 
  93:src/../inc/riscv.hpp ****     // ====================================================================
  94:src/../inc/riscv.hpp **** 
  95:src/../inc/riscv.hpp ****     static void ecall();
  96:src/../inc/riscv.hpp **** 
  97:src/../inc/riscv.hpp ****     static uint64 r_a0();
  98:src/../inc/riscv.hpp **** 
  99:src/../inc/riscv.hpp ****     static void w_a0(uint64 a0);
 100:src/../inc/riscv.hpp **** 
 101:src/../inc/riscv.hpp ****     static uint64 r_a1();
 102:src/../inc/riscv.hpp **** 
 103:src/../inc/riscv.hpp ****     static void w_a1(uint64 a1);
 104:src/../inc/riscv.hpp **** 
 105:src/../inc/riscv.hpp ****     static uint64 r_a2();
 106:src/../inc/riscv.hpp **** 
 107:src/../inc/riscv.hpp ****     static void w_a2(uint64 a2);
 108:src/../inc/riscv.hpp **** 
GAS LISTING /tmp/ccb4Yeeq.s 			page 5


 109:src/../inc/riscv.hpp ****     static uint64 r_a3();
 110:src/../inc/riscv.hpp **** 
 111:src/../inc/riscv.hpp ****     static void w_a3(uint64 a3);
 112:src/../inc/riscv.hpp **** 
 113:src/../inc/riscv.hpp ****     static uint64 r_a4();
 114:src/../inc/riscv.hpp **** 
 115:src/../inc/riscv.hpp ****     static void w_a4(uint64 a4);
 116:src/../inc/riscv.hpp **** 
 117:src/../inc/riscv.hpp ****     static void halt();
 118:src/../inc/riscv.hpp **** private:
 119:src/../inc/riscv.hpp ****     static void swMode(Mode mode); // only from trap
 120:src/../inc/riscv.hpp **** };
 121:src/../inc/riscv.hpp **** 
 122:src/../inc/riscv.hpp **** inline uint64 Riscv::r_scause()
 123:src/../inc/riscv.hpp **** {
 124:src/../inc/riscv.hpp ****     uint64 volatile scause;
 125:src/../inc/riscv.hpp ****     __asm__ volatile ("csrr %[scause], scause" : [scause] "=r"(scause));
 126:src/../inc/riscv.hpp ****     return scause;
 127:src/../inc/riscv.hpp **** }
 128:src/../inc/riscv.hpp **** 
 129:src/../inc/riscv.hpp **** inline void Riscv::w_scause(uint64 scause)
 130:src/../inc/riscv.hpp **** {
 131:src/../inc/riscv.hpp ****     __asm__ volatile ("csrw scause, %[scause]" : : [scause] "r"(scause));
 132:src/../inc/riscv.hpp **** }
 133:src/../inc/riscv.hpp **** 
 134:src/../inc/riscv.hpp **** inline uint64 Riscv::r_sepc()
 135:src/../inc/riscv.hpp **** {
 136:src/../inc/riscv.hpp ****     uint64 volatile sepc;
 137:src/../inc/riscv.hpp ****     __asm__ volatile ("csrr %[sepc], sepc" : [sepc] "=r"(sepc));
 138:src/../inc/riscv.hpp ****     return sepc;
 139:src/../inc/riscv.hpp **** }
 140:src/../inc/riscv.hpp **** 
 141:src/../inc/riscv.hpp **** inline void Riscv::w_sepc(uint64 sepc)
 142:src/../inc/riscv.hpp **** {
 143:src/../inc/riscv.hpp ****     __asm__ volatile ("csrw sepc, %[sepc]" : : [sepc] "r"(sepc));
 144:src/../inc/riscv.hpp **** }
 145:src/../inc/riscv.hpp **** 
 146:src/../inc/riscv.hpp **** inline uint64 Riscv::r_stvec()
 147:src/../inc/riscv.hpp **** {
 148:src/../inc/riscv.hpp ****     uint64 volatile stvec;
 149:src/../inc/riscv.hpp ****     __asm__ volatile ("csrr %[stvec], stvec" : [stvec] "=r"(stvec));
 150:src/../inc/riscv.hpp ****     return stvec;
 151:src/../inc/riscv.hpp **** }
 152:src/../inc/riscv.hpp **** 
 153:src/../inc/riscv.hpp **** inline void Riscv::w_stvec(uint64 stvec)
 154:src/../inc/riscv.hpp **** {
 155:src/../inc/riscv.hpp ****     __asm__ volatile ("csrw stvec, %[stvec]" : : [stvec] "r"(stvec));
 156:src/../inc/riscv.hpp **** }
 157:src/../inc/riscv.hpp **** 
 158:src/../inc/riscv.hpp **** inline uint64 Riscv::r_stval()
 159:src/../inc/riscv.hpp **** {
 160:src/../inc/riscv.hpp ****     uint64 volatile stval;
 161:src/../inc/riscv.hpp ****     __asm__ volatile ("csrr %[stval], stval" : [stval] "=r"(stval));
 162:src/../inc/riscv.hpp ****     return stval;
 163:src/../inc/riscv.hpp **** }
 164:src/../inc/riscv.hpp **** 
 165:src/../inc/riscv.hpp **** inline void Riscv::w_stval(uint64 stval)
GAS LISTING /tmp/ccb4Yeeq.s 			page 6


 166:src/../inc/riscv.hpp **** {
 167:src/../inc/riscv.hpp ****     __asm__ volatile ("csrw stval, %[stval]" : : [stval] "r"(stval));
 168:src/../inc/riscv.hpp **** }
 169:src/../inc/riscv.hpp **** 
 170:src/../inc/riscv.hpp **** inline void Riscv::ms_sip(uint64 mask)
 171:src/../inc/riscv.hpp **** {
 172:src/../inc/riscv.hpp ****     __asm__ volatile ("csrs sip, %[mask]" : : [mask] "r"(mask));
 173:src/../inc/riscv.hpp **** }
 174:src/../inc/riscv.hpp **** 
 175:src/../inc/riscv.hpp **** inline void Riscv::mc_sip(uint64 mask)
 176:src/../inc/riscv.hpp **** {
 177:src/../inc/riscv.hpp ****     __asm__ volatile ("csrc sip, %[mask]" : : [mask] "r"(mask));
 178:src/../inc/riscv.hpp **** }
 179:src/../inc/riscv.hpp **** 
 180:src/../inc/riscv.hpp **** inline uint64 Riscv::r_sip()
 181:src/../inc/riscv.hpp **** {
 182:src/../inc/riscv.hpp ****     uint64 volatile sip;
 183:src/../inc/riscv.hpp ****     __asm__ volatile ("csrr %[sip], sip" : [sip] "=r"(sip));
 184:src/../inc/riscv.hpp ****     return sip;
 185:src/../inc/riscv.hpp **** }
 186:src/../inc/riscv.hpp **** 
 187:src/../inc/riscv.hpp **** inline void Riscv::w_sip(uint64 sip)
 188:src/../inc/riscv.hpp **** {
 189:src/../inc/riscv.hpp ****     __asm__ volatile ("csrw sip, %[sip]" : : [sip] "r"(sip));
 190:src/../inc/riscv.hpp **** }
 191:src/../inc/riscv.hpp **** 
 192:src/../inc/riscv.hpp **** inline void Riscv::ms_sstatus(uint64 mask)
 193:src/../inc/riscv.hpp **** {
 194:src/../inc/riscv.hpp ****     __asm__ volatile ("csrs sstatus, %[mask]" : : [mask] "r"(mask));
 195:src/../inc/riscv.hpp **** }
 196:src/../inc/riscv.hpp **** 
 197:src/../inc/riscv.hpp **** inline void Riscv::mc_sstatus(uint64 mask)
 198:src/../inc/riscv.hpp **** {
 199:src/../inc/riscv.hpp ****     __asm__ volatile ("csrc sstatus, %[mask]" : : [mask] "r"(mask));
 200:src/../inc/riscv.hpp **** }
 201:src/../inc/riscv.hpp **** 
 202:src/../inc/riscv.hpp **** inline uint64 Riscv::r_sstatus()
 203:src/../inc/riscv.hpp **** {
 204:src/../inc/riscv.hpp ****     uint64 volatile sstatus;
 205:src/../inc/riscv.hpp ****     __asm__ volatile ("csrr %[sstatus], sstatus" : [sstatus] "=r"(sstatus));
 206:src/../inc/riscv.hpp ****     return sstatus;
 207:src/../inc/riscv.hpp **** }
 208:src/../inc/riscv.hpp **** 
 209:src/../inc/riscv.hpp **** inline void Riscv::w_sstatus(uint64 sstatus)
 210:src/../inc/riscv.hpp **** {
 211:src/../inc/riscv.hpp ****     __asm__ volatile ("csrw sstatus, %[sstatus]" : : [sstatus] "r"(sstatus));
 212:src/../inc/riscv.hpp **** }
 213:src/../inc/riscv.hpp **** 
 214:src/../inc/riscv.hpp **** // ========================================================================
 215:src/../inc/riscv.hpp **** 
 216:src/../inc/riscv.hpp **** 
 217:src/../inc/riscv.hpp **** inline void Riscv::ecall() {
 218:src/../inc/riscv.hpp ****     __asm__ volatile ("ecall");
 219:src/../inc/riscv.hpp **** }
 220:src/../inc/riscv.hpp **** 
 221:src/../inc/riscv.hpp **** inline uint64 Riscv::r_a0() {
 222:src/../inc/riscv.hpp ****     uint64 volatile a0;
GAS LISTING /tmp/ccb4Yeeq.s 			page 7


  79              		.loc 2 222 5
 223:src/../inc/riscv.hpp ****     __asm__ volatile ("mv %[a0], a0" : [a0] "=r"(a0));
  80              		.loc 2 223 5
  81              		.loc 2 223 54 is_stmt 0
  82              	#APP
  83              	# 223 "src/../inc/riscv.hpp" 1
 224              	    return a0;
  84              		mv a5, a0
  85              	# 0 "" 2
  86              	#NO_APP
  87 0014 233CF4E8 		sd	a5,-360(s0)
  88              		.loc 2 224 5 is_stmt 1
  89              		.loc 2 224 12 is_stmt 0
  90 0018 833784E9 		ld	a5,-360(s0)
  91              	.LBE195:
  92              	.LBE194:
  93              		.loc 1 14 42
  94 001c 2334F4FE 		sd	a5,-24(s0)
  15:src/Handlers.cpp ****     uint64 volatile a1, a2, a3, a4;
  95              		.loc 1 15 5 is_stmt 1
  16:src/Handlers.cpp ****     a1 = Riscv::r_a1();
  96              		.loc 1 16 5
  97              	.LBB196:
  98              	.LBB197:
 225:src/../inc/riscv.hpp **** }
 226:src/../inc/riscv.hpp **** 
 227:src/../inc/riscv.hpp **** inline void Riscv::w_a0(uint64 a0) {
 228:src/../inc/riscv.hpp ****     __asm__ volatile ("mv a0, %[a0]" : : [a0] "r"(a0));
 229:src/../inc/riscv.hpp **** }
 230:src/../inc/riscv.hpp **** 
 231:src/../inc/riscv.hpp **** inline uint64 Riscv::r_a1() {
 232:src/../inc/riscv.hpp ****     uint64 volatile a1;
  99              		.loc 2 232 5
 233:src/../inc/riscv.hpp ****     __asm__ volatile ("mv %[a1], a1" : [a1] "=r"(a1));
 100              		.loc 2 233 5
 101              		.loc 2 233 54 is_stmt 0
 102              	#APP
 103              	# 233 "src/../inc/riscv.hpp" 1
 234              	    return a1;
 104              		mv a5, a1
 105              	# 0 "" 2
 106              	#NO_APP
 107 0024 2338F4E8 		sd	a5,-368(s0)
 108              		.loc 2 234 5 is_stmt 1
 109              		.loc 2 234 12 is_stmt 0
 110 0028 833704E9 		ld	a5,-368(s0)
 111              	.LBE197:
 112              	.LBE196:
 113              		.loc 1 16 8
 114 002c 2330F4FE 		sd	a5,-32(s0)
  17:src/Handlers.cpp ****     a2 = Riscv::r_a2();
 115              		.loc 1 17 5 is_stmt 1
 116              	.LBB198:
 117              	.LBB199:
 235:src/../inc/riscv.hpp **** }
 236:src/../inc/riscv.hpp **** 
 237:src/../inc/riscv.hpp **** inline void Riscv::w_a1(uint64 a1) {
GAS LISTING /tmp/ccb4Yeeq.s 			page 8


 238:src/../inc/riscv.hpp ****     __asm__ volatile ("mv a1, %[a1]" : : [a1] "r"(a1));
 239:src/../inc/riscv.hpp **** }
 240:src/../inc/riscv.hpp **** 
 241:src/../inc/riscv.hpp **** inline uint64 Riscv::r_a2() {
 242:src/../inc/riscv.hpp ****     uint64 volatile a2;
 118              		.loc 2 242 5
 243:src/../inc/riscv.hpp ****     __asm__ volatile ("mv %[a2], a2" : [a2] "=r"(a2));
 119              		.loc 2 243 5
 120              		.loc 2 243 54 is_stmt 0
 121              	#APP
 122              	# 243 "src/../inc/riscv.hpp" 1
 244              	    return a2;
 123              		mv a5, a2
 124              	# 0 "" 2
 125              	#NO_APP
 126 0034 2334F4E8 		sd	a5,-376(s0)
 127              		.loc 2 244 5 is_stmt 1
 128              		.loc 2 244 12 is_stmt 0
 129 0038 833784E8 		ld	a5,-376(s0)
 130              	.LBE199:
 131              	.LBE198:
 132              		.loc 1 17 8
 133 003c 233CF4FC 		sd	a5,-40(s0)
  18:src/Handlers.cpp ****     a3 = Riscv::r_a3();
 134              		.loc 1 18 5 is_stmt 1
 135              	.LBB200:
 136              	.LBB201:
 245:src/../inc/riscv.hpp **** }
 246:src/../inc/riscv.hpp **** 
 247:src/../inc/riscv.hpp **** inline void Riscv::w_a2(uint64 a2) {
 248:src/../inc/riscv.hpp ****     __asm__ volatile ("mv a2, %[a2]" : : [a2] "r"(a2));
 249:src/../inc/riscv.hpp **** }
 250:src/../inc/riscv.hpp **** 
 251:src/../inc/riscv.hpp **** inline uint64 Riscv::r_a3() {
 252:src/../inc/riscv.hpp ****     uint64 volatile a3;
 137              		.loc 2 252 5
 253:src/../inc/riscv.hpp ****     __asm__ volatile ("mv %[a3], a3" : [a3] "=r"(a3));
 138              		.loc 2 253 5
 139              		.loc 2 253 54 is_stmt 0
 140              	#APP
 141              	# 253 "src/../inc/riscv.hpp" 1
 254              	    return a3;
 142              		mv a5, a3
 143              	# 0 "" 2
 144              	#NO_APP
 145 0044 2330F4E8 		sd	a5,-384(s0)
 146              		.loc 2 254 5 is_stmt 1
 147              		.loc 2 254 12 is_stmt 0
 148 0048 833704E8 		ld	a5,-384(s0)
 149              	.LBE201:
 150              	.LBE200:
 151              		.loc 1 18 8
 152 004c 2338F4FC 		sd	a5,-48(s0)
  19:src/Handlers.cpp ****     a4 = Riscv::r_a4();
 153              		.loc 1 19 5 is_stmt 1
 154              	.LBB202:
 155              	.LBB203:
GAS LISTING /tmp/ccb4Yeeq.s 			page 9


 255:src/../inc/riscv.hpp **** }
 256:src/../inc/riscv.hpp **** 
 257:src/../inc/riscv.hpp **** inline void Riscv::w_a3(uint64 a3) {
 258:src/../inc/riscv.hpp ****     __asm__ volatile ("mv a3, %[a3]" : : [a3] "r"(a3));
 259:src/../inc/riscv.hpp **** }
 260:src/../inc/riscv.hpp **** 
 261:src/../inc/riscv.hpp **** inline uint64 Riscv::r_a4() {
 262:src/../inc/riscv.hpp ****     uint64 volatile a4;
 156              		.loc 2 262 5
 263:src/../inc/riscv.hpp ****     __asm__ volatile ("mv %[a4], a4" : [a4] "=r"(a4));
 157              		.loc 2 263 5
 158              		.loc 2 263 54 is_stmt 0
 159              	#APP
 160              	# 263 "src/../inc/riscv.hpp" 1
 264              	    return a4;
 161              		mv a5, a4
 162              	# 0 "" 2
 163              	#NO_APP
 164 0054 233CF4E6 		sd	a5,-392(s0)
 165              		.loc 2 264 5 is_stmt 1
 166              		.loc 2 264 12 is_stmt 0
 167 0058 833784E7 		ld	a5,-392(s0)
 168              	.LBE203:
 169              	.LBE202:
 170              		.loc 1 19 8
 171 005c 2334F4FC 		sd	a5,-56(s0)
  20:src/Handlers.cpp **** 
  21:src/Handlers.cpp ****     uint64 volatile ret = 0;
 172              		.loc 1 21 5 is_stmt 1
 173              		.loc 1 21 21 is_stmt 0
 174 0060 233004FC 		sd	zero,-64(s0)
  22:src/Handlers.cpp **** 
  23:src/Handlers.cpp ****     uint64 volatile sepc = Riscv::r_sepc();
 175              		.loc 1 23 5 is_stmt 1
 176              	.LBB204:
 177              	.LBB205:
 136:src/../inc/riscv.hpp ****     __asm__ volatile ("csrr %[sepc], sepc" : [sepc] "=r"(sepc));
 178              		.loc 2 136 5
 137:src/../inc/riscv.hpp ****     return sepc;
 179              		.loc 2 137 5
 137:src/../inc/riscv.hpp ****     return sepc;
 180              		.loc 2 137 64 is_stmt 0
 181              	#APP
 182              	# 137 "src/../inc/riscv.hpp" 1
 183              		csrr a5, sepc
 184              	# 0 "" 2
 185              	#NO_APP
 186 0068 2338F4E6 		sd	a5,-400(s0)
 138:src/../inc/riscv.hpp **** }
 187              		.loc 2 138 5 is_stmt 1
 138:src/../inc/riscv.hpp **** }
 188              		.loc 2 138 12 is_stmt 0
 189 006c 833704E7 		ld	a5,-400(s0)
 190              	.LBE205:
 191              	.LBE204:
 192              		.loc 1 23 42
 193 0070 233CF4FA 		sd	a5,-72(s0)
GAS LISTING /tmp/ccb4Yeeq.s 			page 10


  24:src/Handlers.cpp ****     uint64 volatile sstatus = Riscv::r_sstatus(); // implicitly save sstatus on stack
 194              		.loc 1 24 5 is_stmt 1
 195              	.LBB206:
 196              	.LBB207:
 204:src/../inc/riscv.hpp ****     __asm__ volatile ("csrr %[sstatus], sstatus" : [sstatus] "=r"(sstatus));
 197              		.loc 2 204 5
 205:src/../inc/riscv.hpp ****     return sstatus;
 198              		.loc 2 205 5
 205:src/../inc/riscv.hpp ****     return sstatus;
 199              		.loc 2 205 76 is_stmt 0
 200              	#APP
 201              	# 205 "src/../inc/riscv.hpp" 1
 202              		csrr a5, sstatus
 203              	# 0 "" 2
 204              	#NO_APP
 205 0078 2334F4E6 		sd	a5,-408(s0)
 206:src/../inc/riscv.hpp **** }
 206              		.loc 2 206 5 is_stmt 1
 206:src/../inc/riscv.hpp **** }
 207              		.loc 2 206 12 is_stmt 0
 208 007c 833784E6 		ld	a5,-408(s0)
 209              	.LBE207:
 210              	.LBE206:
 211              		.loc 1 24 48
 212 0080 2338F4FA 		sd	a5,-80(s0)
  25:src/Handlers.cpp ****     uint64 volatile cause = Riscv::r_scause();
 213              		.loc 1 25 5 is_stmt 1
 214              	.LBB208:
 215              	.LBB209:
 124:src/../inc/riscv.hpp ****     __asm__ volatile ("csrr %[scause], scause" : [scause] "=r"(scause));
 216              		.loc 2 124 5
 125:src/../inc/riscv.hpp ****     return scause;
 217              		.loc 2 125 5
 125:src/../inc/riscv.hpp ****     return scause;
 218              		.loc 2 125 72 is_stmt 0
 219              	#APP
 220              	# 125 "src/../inc/riscv.hpp" 1
 221              		csrr a5, scause
 222              	# 0 "" 2
 223              	#NO_APP
 224 0088 2330F4E6 		sd	a5,-416(s0)
 126:src/../inc/riscv.hpp **** }
 225              		.loc 2 126 5 is_stmt 1
 126:src/../inc/riscv.hpp **** }
 226              		.loc 2 126 12 is_stmt 0
 227 008c 833704E6 		ld	a5,-416(s0)
 228              	.LBE209:
 229              	.LBE208:
 230              		.loc 1 25 45
 231 0090 2334F4FA 		sd	a5,-88(s0)
  26:src/Handlers.cpp ****     /// ecall from S mode or U mode
  27:src/Handlers.cpp ****     if (cause != 0x0000000000000009UL && cause != 0x0000000000000008UL) {
 232              		.loc 1 27 5 is_stmt 1
 233              		.loc 1 27 15 is_stmt 0
 234 0094 033784FA 		ld	a4,-88(s0)
 235              		.loc 1 27 39
 236 0098 93079000 		li	a5,9
GAS LISTING /tmp/ccb4Yeeq.s 			page 11


 237 009c 6308F700 		beq	a4,a5,.L2
 238              		.loc 1 27 48 discriminator 1
 239 00a0 033784FA 		ld	a4,-88(s0)
 240              		.loc 1 27 39 discriminator 1
 241 00a4 93078000 		li	a5,8
 242 00a8 631AF702 		bne	a4,a5,.L32
 243              	.L2:
  28:src/Handlers.cpp ****         printStringS("SCAUSE ERROR: Not syscall.\n");
  29:src/Handlers.cpp ****         Riscv::printStats();
  30:src/Handlers.cpp ****         Riscv::halt();
  31:src/Handlers.cpp ****         return;
  32:src/Handlers.cpp ****     }
  33:src/Handlers.cpp **** 
  34:src/Handlers.cpp **** 
  35:src/Handlers.cpp ****     switch (sys_id) {
 244              		.loc 1 35 5 is_stmt 1
 245              		.loc 1 35 13 is_stmt 0
 246 00ac 833784FE 		ld	a5,-24(s0)
 247              		.loc 1 35 5
 248 00b0 13072004 		li	a4,66
 249 00b4 636EF730 		bgtu	a5,a4,.L4
 250 00b8 E38E0708 		beqz	a5,.L5
 251 00bc E36CF708 		bgtu	a5,a4,.L5
 252 00c0 93972700 		slli	a5,a5,2
 253 00c4 17070000 		lla	a4,.L7
 253      13070700 
 254 00cc B387E700 		add	a5,a5,a4
 255 00d0 83A70700 		lw	a5,0(a5)
 256 00d4 B387E700 		add	a5,a5,a4
 257 00d8 67800700 		jr	a5
 258              		.section	.rodata
 259              		.align	2
 260              		.align	2
 261              	.L7:
 262 0000 00000000 		.word	.L5-.L7
 263 0004 00000000 		.word	.L20-.L7
 264 0008 00000000 		.word	.L19-.L7
 265 000c 00000000 		.word	.L5-.L7
 266 0010 00000000 		.word	.L5-.L7
 267 0014 00000000 		.word	.L5-.L7
 268 0018 00000000 		.word	.L5-.L7
 269 001c 00000000 		.word	.L5-.L7
 270 0020 00000000 		.word	.L5-.L7
 271 0024 00000000 		.word	.L5-.L7
 272 0028 00000000 		.word	.L5-.L7
 273 002c 00000000 		.word	.L5-.L7
 274 0030 00000000 		.word	.L5-.L7
 275 0034 00000000 		.word	.L5-.L7
 276 0038 00000000 		.word	.L5-.L7
 277 003c 00000000 		.word	.L5-.L7
 278 0040 00000000 		.word	.L5-.L7
 279 0044 00000000 		.word	.L18-.L7
 280 0048 00000000 		.word	.L17-.L7
 281 004c 00000000 		.word	.L16-.L7
 282 0050 00000000 		.word	.L5-.L7
 283 0054 00000000 		.word	.L5-.L7
 284 0058 00000000 		.word	.L5-.L7
GAS LISTING /tmp/ccb4Yeeq.s 			page 12


 285 005c 00000000 		.word	.L5-.L7
 286 0060 00000000 		.word	.L5-.L7
 287 0064 00000000 		.word	.L5-.L7
 288 0068 00000000 		.word	.L5-.L7
 289 006c 00000000 		.word	.L5-.L7
 290 0070 00000000 		.word	.L5-.L7
 291 0074 00000000 		.word	.L5-.L7
 292 0078 00000000 		.word	.L5-.L7
 293 007c 00000000 		.word	.L5-.L7
 294 0080 00000000 		.word	.L5-.L7
 295 0084 00000000 		.word	.L15-.L7
 296 0088 00000000 		.word	.L14-.L7
 297 008c 00000000 		.word	.L13-.L7
 298 0090 00000000 		.word	.L12-.L7
 299 0094 00000000 		.word	.L11-.L7
 300 0098 00000000 		.word	.L10-.L7
 301 009c 00000000 		.word	.L5-.L7
 302 00a0 00000000 		.word	.L5-.L7
 303 00a4 00000000 		.word	.L5-.L7
 304 00a8 00000000 		.word	.L5-.L7
 305 00ac 00000000 		.word	.L5-.L7
 306 00b0 00000000 		.word	.L5-.L7
 307 00b4 00000000 		.word	.L5-.L7
 308 00b8 00000000 		.word	.L5-.L7
 309 00bc 00000000 		.word	.L5-.L7
 310 00c0 00000000 		.word	.L5-.L7
 311 00c4 00000000 		.word	.L9-.L7
 312 00c8 00000000 		.word	.L5-.L7
 313 00cc 00000000 		.word	.L5-.L7
 314 00d0 00000000 		.word	.L5-.L7
 315 00d4 00000000 		.word	.L5-.L7
 316 00d8 00000000 		.word	.L5-.L7
 317 00dc 00000000 		.word	.L5-.L7
 318 00e0 00000000 		.word	.L5-.L7
 319 00e4 00000000 		.word	.L5-.L7
 320 00e8 00000000 		.word	.L5-.L7
 321 00ec 00000000 		.word	.L5-.L7
 322 00f0 00000000 		.word	.L5-.L7
 323 00f4 00000000 		.word	.L5-.L7
 324 00f8 00000000 		.word	.L5-.L7
 325 00fc 00000000 		.word	.L5-.L7
 326 0100 00000000 		.word	.L5-.L7
 327 0104 00000000 		.word	.L8-.L7
 328 0108 00000000 		.word	.L6-.L7
 329              		.text
 330              	.L32:
  28:src/Handlers.cpp ****         printStringS("SCAUSE ERROR: Not syscall.\n");
 331              		.loc 1 28 9 is_stmt 1
  28:src/Handlers.cpp ****         printStringS("SCAUSE ERROR: Not syscall.\n");
 332              		.loc 1 28 21 is_stmt 0
 333 00dc 17050000 		lla	a0,.LC0
 333      13050500 
 334 00e4 97000000 		call	_Z12printStringSPKc@plt
 334      E7800000 
 335              	.LVL0:
  29:src/Handlers.cpp ****         Riscv::halt();
 336              		.loc 1 29 9 is_stmt 1
GAS LISTING /tmp/ccb4Yeeq.s 			page 13


 337              	.LBB210:
 338              	.LBB211:
 265:src/../inc/riscv.hpp **** }
 266:src/../inc/riscv.hpp **** 
 267:src/../inc/riscv.hpp **** inline void Riscv::w_a4(uint64 a4) {
 268:src/../inc/riscv.hpp ****     __asm__ volatile ("mv a4, %[a4]" : : [a4] "r"(a4));
 269:src/../inc/riscv.hpp **** }
 270:src/../inc/riscv.hpp **** 
 271:src/../inc/riscv.hpp **** inline void Riscv::halt() {
 272:src/../inc/riscv.hpp ****     __asm__ volatile("li t0, 0x5555");
 273:src/../inc/riscv.hpp ****     __asm__ volatile("li t1, 0x100000");
 274:src/../inc/riscv.hpp ****     __asm__ volatile("sw t0, 0(t1) ");
 275:src/../inc/riscv.hpp **** }
 276:src/../inc/riscv.hpp **** 
 277:src/../inc/riscv.hpp **** inline void Riscv::swMode(Riscv::Mode mode) {
 278:src/../inc/riscv.hpp **** 
 279:src/../inc/riscv.hpp ****     if(mode == USER) // change to user mode
 280:src/../inc/riscv.hpp ****         Riscv::mc_sstatus(Riscv::SSTATUS_SPP); // previous privileges
 281:src/../inc/riscv.hpp ****     else if(mode == SUPERVISOR)
 282:src/../inc/riscv.hpp ****         Riscv::ms_sstatus(Riscv::SSTATUS_SPP);
 283:src/../inc/riscv.hpp **** 
 284:src/../inc/riscv.hpp **** }
 285:src/../inc/riscv.hpp **** 
 286:src/../inc/riscv.hpp **** inline void Riscv::changeMode(Riscv::Mode mode) {
 287:src/../inc/riscv.hpp ****     Riscv::w_a0(sysID::CHANGE_MODE);
 288:src/../inc/riscv.hpp ****     Riscv::w_a1(mode); // 0 is user mode
 289:src/../inc/riscv.hpp ****     Riscv::ecall();
 290:src/../inc/riscv.hpp **** }
 291:src/../inc/riscv.hpp **** 
 292:src/../inc/riscv.hpp **** inline void Riscv::printStats() {
 293:src/../inc/riscv.hpp ****     printStringS("\t\t");
 339              		.loc 2 293 5
 340              		.loc 2 293 17 is_stmt 0
 341 00ec 17050000 		lla	a0,.LC1
 341      13050500 
 342 00f4 97000000 		call	_Z12printStringSPKc@plt
 342      E7800000 
 343              	.LVL1:
 294:src/../inc/riscv.hpp ****     printStringS("scause: ");printIntS(r_scause(), 16);printStringS("\t");
 344              		.loc 2 294 5 is_stmt 1
 345              		.loc 2 294 17 is_stmt 0
 346 00fc 17050000 		lla	a0,.LC2
 346      13050500 
 347 0104 97000000 		call	_Z12printStringSPKc@plt
 347      E7800000 
 348              	.LVL2:
 349              		.loc 2 294 30 is_stmt 1
 350              	.LBB212:
 351              	.LBB213:
 124:src/../inc/riscv.hpp ****     __asm__ volatile ("csrr %[scause], scause" : [scause] "=r"(scause));
 352              		.loc 2 124 5
 125:src/../inc/riscv.hpp ****     return scause;
 353              		.loc 2 125 5
 125:src/../inc/riscv.hpp ****     return scause;
 354              		.loc 2 125 72 is_stmt 0
 355              	#APP
 356              	# 125 "src/../inc/riscv.hpp" 1
GAS LISTING /tmp/ccb4Yeeq.s 			page 14


 357              		csrr a5, scause
 358              	# 0 "" 2
 359              	#NO_APP
 360 0110 2330F4EA 		sd	a5,-352(s0)
 126:src/../inc/riscv.hpp **** }
 361              		.loc 2 126 5 is_stmt 1
 126:src/../inc/riscv.hpp **** }
 362              		.loc 2 126 12 is_stmt 0
 363 0114 033504EA 		ld	a0,-352(s0)
 364              	.LBE213:
 365              	.LBE212:
 366              		.loc 2 294 39
 367 0118 13060000 		li	a2,0
 368 011c 93050001 		li	a1,16
 369 0120 1B050500 		sext.w	a0,a0
 370 0124 97000000 		call	_Z9printIntSiii@plt
 370      E7800000 
 371              	.LVL3:
 372              		.loc 2 294 56 is_stmt 1
 373              		.loc 2 294 68 is_stmt 0
 374 012c 17050000 		lla	a0,.LC3
 374      13050500 
 375 0134 97000000 		call	_Z12printStringSPKc@plt
 375      E7800000 
 376              	.LVL4:
 295:src/../inc/riscv.hpp ****     printStringS("sstatus: ");printIntS(r_sstatus(), 16);printStringS("\t");
 377              		.loc 2 295 5 is_stmt 1
 378              		.loc 2 295 17 is_stmt 0
 379 013c 17050000 		lla	a0,.LC4
 379      13050500 
 380 0144 97000000 		call	_Z12printStringSPKc@plt
 380      E7800000 
 381              	.LVL5:
 382              		.loc 2 295 31 is_stmt 1
 383              	.LBB214:
 384              	.LBB215:
 204:src/../inc/riscv.hpp ****     __asm__ volatile ("csrr %[sstatus], sstatus" : [sstatus] "=r"(sstatus));
 385              		.loc 2 204 5
 205:src/../inc/riscv.hpp ****     return sstatus;
 386              		.loc 2 205 5
 205:src/../inc/riscv.hpp ****     return sstatus;
 387              		.loc 2 205 76 is_stmt 0
 388              	#APP
 389              	# 205 "src/../inc/riscv.hpp" 1
 390              		csrr a5, sstatus
 391              	# 0 "" 2
 392              	#NO_APP
 393 0150 2334F4EA 		sd	a5,-344(s0)
 206:src/../inc/riscv.hpp **** }
 394              		.loc 2 206 5 is_stmt 1
 206:src/../inc/riscv.hpp **** }
 395              		.loc 2 206 12 is_stmt 0
 396 0154 033584EA 		ld	a0,-344(s0)
 397              	.LBE215:
 398              	.LBE214:
 399              		.loc 2 295 40
 400 0158 13060000 		li	a2,0
GAS LISTING /tmp/ccb4Yeeq.s 			page 15


 401 015c 93050001 		li	a1,16
 402 0160 1B050500 		sext.w	a0,a0
 403 0164 97000000 		call	_Z9printIntSiii@plt
 403      E7800000 
 404              	.LVL6:
 405              		.loc 2 295 58 is_stmt 1
 406              		.loc 2 295 70 is_stmt 0
 407 016c 17050000 		lla	a0,.LC3
 407      13050500 
 408 0174 97000000 		call	_Z12printStringSPKc@plt
 408      E7800000 
 409              	.LVL7:
 296:src/../inc/riscv.hpp ****     printStringS("sepc: ");printIntS(r_sepc(), 16);printStringS("\t");
 410              		.loc 2 296 5 is_stmt 1
 411              		.loc 2 296 17 is_stmt 0
 412 017c 17050000 		lla	a0,.LC5
 412      13050500 
 413 0184 97000000 		call	_Z12printStringSPKc@plt
 413      E7800000 
 414              	.LVL8:
 415              		.loc 2 296 28 is_stmt 1
 416              	.LBB216:
 417              	.LBB217:
 136:src/../inc/riscv.hpp ****     __asm__ volatile ("csrr %[sepc], sepc" : [sepc] "=r"(sepc));
 418              		.loc 2 136 5
 137:src/../inc/riscv.hpp ****     return sepc;
 419              		.loc 2 137 5
 137:src/../inc/riscv.hpp ****     return sepc;
 420              		.loc 2 137 64 is_stmt 0
 421              	#APP
 422              	# 137 "src/../inc/riscv.hpp" 1
 423              		csrr a5, sepc
 424              	# 0 "" 2
 425              	#NO_APP
 426 0190 2338F4EA 		sd	a5,-336(s0)
 138:src/../inc/riscv.hpp **** }
 427              		.loc 2 138 5 is_stmt 1
 138:src/../inc/riscv.hpp **** }
 428              		.loc 2 138 12 is_stmt 0
 429 0194 033504EB 		ld	a0,-336(s0)
 430              	.LBE217:
 431              	.LBE216:
 432              		.loc 2 296 37
 433 0198 13060000 		li	a2,0
 434 019c 93050001 		li	a1,16
 435 01a0 1B050500 		sext.w	a0,a0
 436 01a4 97000000 		call	_Z9printIntSiii@plt
 436      E7800000 
 437              	.LVL9:
 438              		.loc 2 296 52 is_stmt 1
 439              		.loc 2 296 64 is_stmt 0
 440 01ac 17050000 		lla	a0,.LC3
 440      13050500 
 441 01b4 97000000 		call	_Z12printStringSPKc@plt
 441      E7800000 
 442              	.LVL10:
 297:src/../inc/riscv.hpp ****     printStringS("sip: ");printIntS(r_sip(), 16);printStringS("\t");
GAS LISTING /tmp/ccb4Yeeq.s 			page 16


 443              		.loc 2 297 5 is_stmt 1
 444              		.loc 2 297 17 is_stmt 0
 445 01bc 17050000 		lla	a0,.LC6
 445      13050500 
 446 01c4 97000000 		call	_Z12printStringSPKc@plt
 446      E7800000 
 447              	.LVL11:
 448              		.loc 2 297 27 is_stmt 1
 449              	.LBB218:
 450              	.LBB219:
 182:src/../inc/riscv.hpp ****     __asm__ volatile ("csrr %[sip], sip" : [sip] "=r"(sip));
 451              		.loc 2 182 5
 183:src/../inc/riscv.hpp ****     return sip;
 452              		.loc 2 183 5
 183:src/../inc/riscv.hpp ****     return sip;
 453              		.loc 2 183 60 is_stmt 0
 454              	#APP
 455              	# 183 "src/../inc/riscv.hpp" 1
 456              		csrr a5, sip
 457              	# 0 "" 2
 458              	#NO_APP
 459 01d0 233CF4EA 		sd	a5,-328(s0)
 184:src/../inc/riscv.hpp **** }
 460              		.loc 2 184 5 is_stmt 1
 184:src/../inc/riscv.hpp **** }
 461              		.loc 2 184 12 is_stmt 0
 462 01d4 033584EB 		ld	a0,-328(s0)
 463              	.LBE219:
 464              	.LBE218:
 465              		.loc 2 297 36
 466 01d8 13060000 		li	a2,0
 467 01dc 93050001 		li	a1,16
 468 01e0 1B050500 		sext.w	a0,a0
 469 01e4 97000000 		call	_Z9printIntSiii@plt
 469      E7800000 
 470              	.LVL12:
 471              		.loc 2 297 50 is_stmt 1
 472              		.loc 2 297 62 is_stmt 0
 473 01ec 17050000 		lla	a0,.LC3
 473      13050500 
 474 01f4 97000000 		call	_Z12printStringSPKc@plt
 474      E7800000 
 475              	.LVL13:
 298:src/../inc/riscv.hpp ****     printStringS("stval: ");printIntS(r_stval(), 16);printStringS("\t");
 476              		.loc 2 298 5 is_stmt 1
 477              		.loc 2 298 17 is_stmt 0
 478 01fc 17050000 		lla	a0,.LC7
 478      13050500 
 479 0204 97000000 		call	_Z12printStringSPKc@plt
 479      E7800000 
 480              	.LVL14:
 481              		.loc 2 298 29 is_stmt 1
 482              	.LBB220:
 483              	.LBB221:
 160:src/../inc/riscv.hpp ****     __asm__ volatile ("csrr %[stval], stval" : [stval] "=r"(stval));
 484              		.loc 2 160 5
 161:src/../inc/riscv.hpp ****     return stval;
GAS LISTING /tmp/ccb4Yeeq.s 			page 17


 485              		.loc 2 161 5
 161:src/../inc/riscv.hpp ****     return stval;
 486              		.loc 2 161 68 is_stmt 0
 487              	#APP
 488              	# 161 "src/../inc/riscv.hpp" 1
 489              		csrr a5, stval
 490              	# 0 "" 2
 491              	#NO_APP
 492 0210 2330F4EC 		sd	a5,-320(s0)
 162:src/../inc/riscv.hpp **** }
 493              		.loc 2 162 5 is_stmt 1
 162:src/../inc/riscv.hpp **** }
 494              		.loc 2 162 12 is_stmt 0
 495 0214 033504EC 		ld	a0,-320(s0)
 496              	.LBE221:
 497              	.LBE220:
 498              		.loc 2 298 38
 499 0218 13060000 		li	a2,0
 500 021c 93050001 		li	a1,16
 501 0220 1B050500 		sext.w	a0,a0
 502 0224 97000000 		call	_Z9printIntSiii@plt
 502      E7800000 
 503              	.LVL15:
 504              		.loc 2 298 54 is_stmt 1
 505              		.loc 2 298 66 is_stmt 0
 506 022c 17050000 		lla	a0,.LC3
 506      13050500 
 507 0234 97000000 		call	_Z12printStringSPKc@plt
 507      E7800000 
 508              	.LVL16:
 299:src/../inc/riscv.hpp ****     printStringS("stvec: ");printIntS(r_stvec(), 16);printStringS("\n\t\t");
 509              		.loc 2 299 5 is_stmt 1
 510              		.loc 2 299 17 is_stmt 0
 511 023c 17050000 		lla	a0,.LC8
 511      13050500 
 512 0244 97000000 		call	_Z12printStringSPKc@plt
 512      E7800000 
 513              	.LVL17:
 514              		.loc 2 299 29 is_stmt 1
 515              	.LBB222:
 516              	.LBB223:
 148:src/../inc/riscv.hpp ****     __asm__ volatile ("csrr %[stvec], stvec" : [stvec] "=r"(stvec));
 517              		.loc 2 148 5
 149:src/../inc/riscv.hpp ****     return stvec;
 518              		.loc 2 149 5
 149:src/../inc/riscv.hpp ****     return stvec;
 519              		.loc 2 149 68 is_stmt 0
 520              	#APP
 521              	# 149 "src/../inc/riscv.hpp" 1
 522              		csrr a5, stvec
 523              	# 0 "" 2
 524              	#NO_APP
 525 0250 2334F4EC 		sd	a5,-312(s0)
 150:src/../inc/riscv.hpp **** }
 526              		.loc 2 150 5 is_stmt 1
 150:src/../inc/riscv.hpp **** }
 527              		.loc 2 150 12 is_stmt 0
GAS LISTING /tmp/ccb4Yeeq.s 			page 18


 528 0254 033584EC 		ld	a0,-312(s0)
 529              	.LBE223:
 530              	.LBE222:
 531              		.loc 2 299 38
 532 0258 13060000 		li	a2,0
 533 025c 93050001 		li	a1,16
 534 0260 1B050500 		sext.w	a0,a0
 535 0264 97000000 		call	_Z9printIntSiii@plt
 535      E7800000 
 536              	.LVL18:
 537              		.loc 2 299 54 is_stmt 1
 538              		.loc 2 299 66 is_stmt 0
 539 026c 17050000 		lla	a0,.LC9
 539      13050500 
 540 0274 97000000 		call	_Z12printStringSPKc@plt
 540      E7800000 
 541              	.LVL19:
 300:src/../inc/riscv.hpp ****     printStringS("a0: ");printIntS(r_a0(), 16);printStringS("\t");
 542              		.loc 2 300 5 is_stmt 1
 543              		.loc 2 300 17 is_stmt 0
 544 027c 17050000 		lla	a0,.LC10
 544      13050500 
 545 0284 97000000 		call	_Z12printStringSPKc@plt
 545      E7800000 
 546              	.LVL20:
 547              		.loc 2 300 26 is_stmt 1
 548              	.LBB224:
 549              	.LBB225:
 222:src/../inc/riscv.hpp ****     __asm__ volatile ("mv %[a0], a0" : [a0] "=r"(a0));
 550              		.loc 2 222 5
 223:src/../inc/riscv.hpp ****     return a0;
 551              		.loc 2 223 5
 223:src/../inc/riscv.hpp ****     return a0;
 552              		.loc 2 223 54 is_stmt 0
 553              	#APP
 554              	# 223 "src/../inc/riscv.hpp" 1
 555              		mv a5, a0
 556              	# 0 "" 2
 557              	#NO_APP
 558 0290 2338F4EC 		sd	a5,-304(s0)
 224:src/../inc/riscv.hpp **** }
 559              		.loc 2 224 5 is_stmt 1
 224:src/../inc/riscv.hpp **** }
 560              		.loc 2 224 12 is_stmt 0
 561 0294 033504ED 		ld	a0,-304(s0)
 562              	.LBE225:
 563              	.LBE224:
 564              		.loc 2 300 35
 565 0298 13060000 		li	a2,0
 566 029c 93050001 		li	a1,16
 567 02a0 1B050500 		sext.w	a0,a0
 568 02a4 97000000 		call	_Z9printIntSiii@plt
 568      E7800000 
 569              	.LVL21:
 570              		.loc 2 300 48 is_stmt 1
 571              		.loc 2 300 60 is_stmt 0
 572 02ac 17050000 		lla	a0,.LC3
GAS LISTING /tmp/ccb4Yeeq.s 			page 19


 572      13050500 
 573 02b4 97000000 		call	_Z12printStringSPKc@plt
 573      E7800000 
 574              	.LVL22:
 301:src/../inc/riscv.hpp ****     printStringS("a1: ");printIntS(r_a1(), 16);printStringS("\t");
 575              		.loc 2 301 5 is_stmt 1
 576              		.loc 2 301 17 is_stmt 0
 577 02bc 17050000 		lla	a0,.LC11
 577      13050500 
 578 02c4 97000000 		call	_Z12printStringSPKc@plt
 578      E7800000 
 579              	.LVL23:
 580              		.loc 2 301 26 is_stmt 1
 581              	.LBB226:
 582              	.LBB227:
 232:src/../inc/riscv.hpp ****     __asm__ volatile ("mv %[a1], a1" : [a1] "=r"(a1));
 583              		.loc 2 232 5
 233:src/../inc/riscv.hpp ****     return a1;
 584              		.loc 2 233 5
 233:src/../inc/riscv.hpp ****     return a1;
 585              		.loc 2 233 54 is_stmt 0
 586              	#APP
 587              	# 233 "src/../inc/riscv.hpp" 1
 588              		mv a5, a1
 589              	# 0 "" 2
 590              	#NO_APP
 591 02d0 233CF4EC 		sd	a5,-296(s0)
 234:src/../inc/riscv.hpp **** }
 592              		.loc 2 234 5 is_stmt 1
 234:src/../inc/riscv.hpp **** }
 593              		.loc 2 234 12 is_stmt 0
 594 02d4 033584ED 		ld	a0,-296(s0)
 595              	.LBE227:
 596              	.LBE226:
 597              		.loc 2 301 35
 598 02d8 13060000 		li	a2,0
 599 02dc 93050001 		li	a1,16
 600 02e0 1B050500 		sext.w	a0,a0
 601 02e4 97000000 		call	_Z9printIntSiii@plt
 601      E7800000 
 602              	.LVL24:
 603              		.loc 2 301 48 is_stmt 1
 604              		.loc 2 301 60 is_stmt 0
 605 02ec 17050000 		lla	a0,.LC3
 605      13050500 
 606 02f4 97000000 		call	_Z12printStringSPKc@plt
 606      E7800000 
 607              	.LVL25:
 302:src/../inc/riscv.hpp ****     printStringS("a2: ");printIntS(r_a2(), 16);printStringS("\t");
 608              		.loc 2 302 5 is_stmt 1
 609              		.loc 2 302 17 is_stmt 0
 610 02fc 17050000 		lla	a0,.LC12
 610      13050500 
 611 0304 97000000 		call	_Z12printStringSPKc@plt
 611      E7800000 
 612              	.LVL26:
 613              		.loc 2 302 26 is_stmt 1
GAS LISTING /tmp/ccb4Yeeq.s 			page 20


 614              	.LBB228:
 615              	.LBB229:
 242:src/../inc/riscv.hpp ****     __asm__ volatile ("mv %[a2], a2" : [a2] "=r"(a2));
 616              		.loc 2 242 5
 243:src/../inc/riscv.hpp ****     return a2;
 617              		.loc 2 243 5
 243:src/../inc/riscv.hpp ****     return a2;
 618              		.loc 2 243 54 is_stmt 0
 619              	#APP
 620              	# 243 "src/../inc/riscv.hpp" 1
 621              		mv a5, a2
 622              	# 0 "" 2
 623              	#NO_APP
 624 0310 2330F4EE 		sd	a5,-288(s0)
 244:src/../inc/riscv.hpp **** }
 625              		.loc 2 244 5 is_stmt 1
 244:src/../inc/riscv.hpp **** }
 626              		.loc 2 244 12 is_stmt 0
 627 0314 033504EE 		ld	a0,-288(s0)
 628              	.LBE229:
 629              	.LBE228:
 630              		.loc 2 302 35
 631 0318 13060000 		li	a2,0
 632 031c 93050001 		li	a1,16
 633 0320 1B050500 		sext.w	a0,a0
 634 0324 97000000 		call	_Z9printIntSiii@plt
 634      E7800000 
 635              	.LVL27:
 636              		.loc 2 302 48 is_stmt 1
 637              		.loc 2 302 60 is_stmt 0
 638 032c 17050000 		lla	a0,.LC3
 638      13050500 
 639 0334 97000000 		call	_Z12printStringSPKc@plt
 639      E7800000 
 640              	.LVL28:
 303:src/../inc/riscv.hpp ****     printStringS("a3: ");printIntS(r_a3(), 16);printStringS("\t");
 641              		.loc 2 303 5 is_stmt 1
 642              		.loc 2 303 17 is_stmt 0
 643 033c 17050000 		lla	a0,.LC13
 643      13050500 
 644 0344 97000000 		call	_Z12printStringSPKc@plt
 644      E7800000 
 645              	.LVL29:
 646              		.loc 2 303 26 is_stmt 1
 647              	.LBB230:
 648              	.LBB231:
 252:src/../inc/riscv.hpp ****     __asm__ volatile ("mv %[a3], a3" : [a3] "=r"(a3));
 649              		.loc 2 252 5
 253:src/../inc/riscv.hpp ****     return a3;
 650              		.loc 2 253 5
 253:src/../inc/riscv.hpp ****     return a3;
 651              		.loc 2 253 54 is_stmt 0
 652              	#APP
 653              	# 253 "src/../inc/riscv.hpp" 1
 654              		mv a5, a3
 655              	# 0 "" 2
 656              	#NO_APP
GAS LISTING /tmp/ccb4Yeeq.s 			page 21


 657 0350 2334F4EE 		sd	a5,-280(s0)
 254:src/../inc/riscv.hpp **** }
 658              		.loc 2 254 5 is_stmt 1
 254:src/../inc/riscv.hpp **** }
 659              		.loc 2 254 12 is_stmt 0
 660 0354 033584EE 		ld	a0,-280(s0)
 661              	.LBE231:
 662              	.LBE230:
 663              		.loc 2 303 35
 664 0358 13060000 		li	a2,0
 665 035c 93050001 		li	a1,16
 666 0360 1B050500 		sext.w	a0,a0
 667 0364 97000000 		call	_Z9printIntSiii@plt
 667      E7800000 
 668              	.LVL30:
 669              		.loc 2 303 48 is_stmt 1
 670              		.loc 2 303 60 is_stmt 0
 671 036c 17050000 		lla	a0,.LC3
 671      13050500 
 672 0374 97000000 		call	_Z12printStringSPKc@plt
 672      E7800000 
 673              	.LVL31:
 304:src/../inc/riscv.hpp ****     printStringS("a4: ");printIntS(r_a4(), 16);printStringS("\n\t\t");
 674              		.loc 2 304 5 is_stmt 1
 675              		.loc 2 304 17 is_stmt 0
 676 037c 17050000 		lla	a0,.LC14
 676      13050500 
 677 0384 97000000 		call	_Z12printStringSPKc@plt
 677      E7800000 
 678              	.LVL32:
 679              		.loc 2 304 26 is_stmt 1
 680              	.LBB232:
 681              	.LBB233:
 262:src/../inc/riscv.hpp ****     __asm__ volatile ("mv %[a4], a4" : [a4] "=r"(a4));
 682              		.loc 2 262 5
 263:src/../inc/riscv.hpp ****     return a4;
 683              		.loc 2 263 5
 263:src/../inc/riscv.hpp ****     return a4;
 684              		.loc 2 263 54 is_stmt 0
 685              	#APP
 686              	# 263 "src/../inc/riscv.hpp" 1
 687              		mv a5, a4
 688              	# 0 "" 2
 689              	#NO_APP
 690 0390 2338F4EE 		sd	a5,-272(s0)
 264:src/../inc/riscv.hpp **** }
 691              		.loc 2 264 5 is_stmt 1
 264:src/../inc/riscv.hpp **** }
 692              		.loc 2 264 12 is_stmt 0
 693 0394 033504EF 		ld	a0,-272(s0)
 694              	.LBE233:
 695              	.LBE232:
 696              		.loc 2 304 35
 697 0398 13060000 		li	a2,0
 698 039c 93050001 		li	a1,16
 699 03a0 1B050500 		sext.w	a0,a0
 700 03a4 97000000 		call	_Z9printIntSiii@plt
GAS LISTING /tmp/ccb4Yeeq.s 			page 22


 700      E7800000 
 701              	.LVL33:
 702              		.loc 2 304 48 is_stmt 1
 703              		.loc 2 304 60 is_stmt 0
 704 03ac 17050000 		lla	a0,.LC9
 704      13050500 
 705 03b4 97000000 		call	_Z12printStringSPKc@plt
 705      E7800000 
 706              	.LVL34:
 707              	.LBE211:
 708              	.LBE210:
  30:src/Handlers.cpp ****         return;
 709              		.loc 1 30 9 is_stmt 1
 710              	.LBB234:
 711              	.LBB235:
 272:src/../inc/riscv.hpp ****     __asm__ volatile("li t1, 0x100000");
 712              		.loc 2 272 5
 272:src/../inc/riscv.hpp ****     __asm__ volatile("li t1, 0x100000");
 713              		.loc 2 272 38 is_stmt 0
 714              	#APP
 715              	# 272 "src/../inc/riscv.hpp" 1
 273:src/../inc/riscv.hpp ****     __asm__ volatile("sw t0, 0(t1) ");
 716              		li t0, 0x5555
 717              	# 0 "" 2
 718              		.loc 2 273 5 is_stmt 1
 273:src/../inc/riscv.hpp ****     __asm__ volatile("sw t0, 0(t1) ");
 719              		.loc 2 273 40 is_stmt 0
 720              	# 273 "src/../inc/riscv.hpp" 1
 274:src/../inc/riscv.hpp **** }
 721              		li t1, 0x100000
 722              	# 0 "" 2
 723              		.loc 2 274 5 is_stmt 1
 274:src/../inc/riscv.hpp **** }
 724              		.loc 2 274 38 is_stmt 0
 725              	# 274 "src/../inc/riscv.hpp" 1
 726              		sw t0, 0(t1) 
 727              	# 0 "" 2
 728              	#NO_APP
 729              	.LBE235:
 730              	.LBE234:
  31:src/Handlers.cpp ****     }
 731              		.loc 1 31 9 is_stmt 1
 732 03cc 6F00C008 		j	.L1
 733              	.L4:
 734              		.loc 1 35 5 is_stmt 0
 735 03d0 13079009 		li	a4,153
 736 03d4 6390E758 		bne	a5,a4,.L5
  36:src/Handlers.cpp ****         case sysID::MEM_ALLOC:
  37:src/Handlers.cpp ****             ret = (uint64) MemoryAllocator::instance().malloc_blocks(a1);
  38:src/Handlers.cpp ****             break;
  39:src/Handlers.cpp ****         case sysID::MEM_FREE:
  40:src/Handlers.cpp ****             ret = (int) MemoryAllocator::instance().free((void *) a1);
  41:src/Handlers.cpp ****             break;
  42:src/Handlers.cpp ****         case sysID::THREAD_CREATE:
  43:src/Handlers.cpp ****             ret = (int) _thread::threadCreate((thread_t *) a1, (_thread::Body) a2, (void *) a3, (vo
  44:src/Handlers.cpp ****             break;
  45:src/Handlers.cpp ****         case sysID::THREAD_EXIT:
GAS LISTING /tmp/ccb4Yeeq.s 			page 23


  46:src/Handlers.cpp ****             ret = (int) _thread::threadExit(); /// will return if error
  47:src/Handlers.cpp ****             break;
  48:src/Handlers.cpp ****         case sysID::THREAD_DISPATCH:
  49:src/Handlers.cpp ****             /// it returns void
  50:src/Handlers.cpp ****             /// reset time
  51:src/Handlers.cpp ****             _thread::timeSliceCounter = 0;
  52:src/Handlers.cpp ****             /// change context
  53:src/Handlers.cpp ****             _thread::dispatch();
  54:src/Handlers.cpp ****             /// from new thread stack restore sstatus and sepc
  55:src/Handlers.cpp ****             //Riscv::w_sstatus(sstatus); // context switching so save sstatus and return restore it
  56:src/Handlers.cpp ****             break;
  57:src/Handlers.cpp ****         case sysID::SEM_OPEN:
  58:src/Handlers.cpp ****             ret = (int)_sem::semOpen((sem_t *)a1, (int)a2);
  59:src/Handlers.cpp ****             break;
  60:src/Handlers.cpp ****         case sysID::SEM_CLOSE:
  61:src/Handlers.cpp ****             if(!_sem::validSemaphore((sem_t)a1)){
  62:src/Handlers.cpp ****                 ret = -1;
  63:src/Handlers.cpp ****                 break;
  64:src/Handlers.cpp ****             }
  65:src/Handlers.cpp ****             ((sem_t)a1)->semClose();
  66:src/Handlers.cpp ****             ret = MemoryAllocator::instance().free((void *)a1); // deallocate semaphore, used in C 
  67:src/Handlers.cpp ****             break;
  68:src/Handlers.cpp ****         case sysID::SEM_WAIT:// can change context: yes
  69:src/Handlers.cpp ****             if(!_sem::validSemaphore((sem_t)a1)){
  70:src/Handlers.cpp ****                 ret = -1;
  71:src/Handlers.cpp ****                 break;
  72:src/Handlers.cpp ****             }
  73:src/Handlers.cpp ****             ret = (int)((sem_t)a1)->semWait();
  74:src/Handlers.cpp ****             break;
  75:src/Handlers.cpp ****         case sysID::SEM_SIGNAL:
  76:src/Handlers.cpp ****             if(!_sem::validSemaphore((sem_t)a1)){
  77:src/Handlers.cpp ****                 ret = -1;
  78:src/Handlers.cpp ****                 break;
  79:src/Handlers.cpp ****             }
  80:src/Handlers.cpp ****             ret = (int)((sem_t)a1)->semSignal();
  81:src/Handlers.cpp ****             break;
  82:src/Handlers.cpp ****         case sysID::SEM_TIMEDWAIT:// can change context: yes
  83:src/Handlers.cpp ****             if(!_sem::validSemaphore((sem_t)a1)){
  84:src/Handlers.cpp ****                 ret = -1; // SEMDEAD
  85:src/Handlers.cpp ****                 break;
  86:src/Handlers.cpp ****             }
  87:src/Handlers.cpp ****             ret = (int)((sem_t)a1)->semWait((time_t)a2, true);
  88:src/Handlers.cpp ****             break;
  89:src/Handlers.cpp ****         case sysID::SEM_TRYWAIT:
  90:src/Handlers.cpp ****             if(!_sem::validSemaphore((sem_t)a1)){
  91:src/Handlers.cpp ****                 ret = -1;
  92:src/Handlers.cpp ****                 break;
  93:src/Handlers.cpp ****             }
  94:src/Handlers.cpp ****             ret = (int)((sem_t)a1)->semTryWait();
  95:src/Handlers.cpp ****             break;
  96:src/Handlers.cpp ****         case sysID::TIME_SLEEP: // can change context: yes
  97:src/Handlers.cpp ****             ret = (int)(_thread::timeSleep((time_t)a1));
  98:src/Handlers.cpp ****             break;
  99:src/Handlers.cpp ****         case sysID::GET_C:
 100:src/Handlers.cpp ****             ret = (char)_console::getcBuffer->get();
 101:src/Handlers.cpp ****             break;
 102:src/Handlers.cpp ****         case sysID::PUT_C:
GAS LISTING /tmp/ccb4Yeeq.s 			page 24


 103:src/Handlers.cpp ****             _console::putcBuffer->put(a1);
 104:src/Handlers.cpp ****             break;
 105:src/Handlers.cpp ****         case sysID::CHANGE_MODE:
 737              		.loc 1 105 9 is_stmt 1
 106:src/Handlers.cpp ****             /// in a1 is what mode to change
 107:src/Handlers.cpp ****             if(_thread::running != _thread::mainThread) // don't allow user threads to change mode
 738              		.loc 1 107 13
 739              		.loc 1 107 33 is_stmt 0
 740 03d8 97070000 		la	a5,_ZN7_thread7runningE
 740      83B70700 
 741 03e0 03B70700 		ld	a4,0(a5)
 742 03e4 97070000 		la	a5,_ZN7_thread10mainThreadE
 742      83B70700 
 743 03ec 83B70700 		ld	a5,0(a5)
 744              		.loc 1 107 13
 745 03f0 631EF724 		bne	a4,a5,.L33
 108:src/Handlers.cpp ****             {
 109:src/Handlers.cpp ****                 printStringS("sysID::CHANGE_MODE ERROR: Change not granted.\n");
 110:src/Handlers.cpp ****                 Riscv::printStats();
 111:src/Handlers.cpp ****                 Riscv::halt();
 112:src/Handlers.cpp ****                 return;
 113:src/Handlers.cpp ****             }
 114:src/Handlers.cpp ****             ret = 0;
 746              		.loc 1 114 13 is_stmt 1
 747              		.loc 1 114 17 is_stmt 0
 748 03f4 233004FC 		sd	zero,-64(s0)
 115:src/Handlers.cpp ****             Riscv::swMode((Riscv::Mode)a1);
 749              		.loc 1 115 13 is_stmt 1
 750              		.loc 1 115 26 is_stmt 0
 751 03f8 833704FE 		ld	a5,-32(s0)
 752 03fc 9B870700 		sext.w	a5,a5
 753              	.LVL35:
 754              	.LBB236:
 755              	.LBB237:
 279:src/../inc/riscv.hpp ****         Riscv::mc_sstatus(Riscv::SSTATUS_SPP); // previous privileges
 756              		.loc 2 279 5 is_stmt 1
 757 0400 63900754 		bnez	a5,.L29
 280:src/../inc/riscv.hpp ****     else if(mode == SUPERVISOR)
 758              		.loc 2 280 9
 759              	.LVL36:
 760              	.LBB238:
 761              	.LBB239:
 199:src/../inc/riscv.hpp **** }
 762              		.loc 2 199 5
 199:src/../inc/riscv.hpp **** }
 763              		.loc 2 199 68 is_stmt 0
 764 0404 93070010 		li	a5,256
 765              	.LVL37:
 766              	#APP
 767              	# 199 "src/../inc/riscv.hpp" 1
 768              		csrc sstatus, a5
 769              	# 0 "" 2
 770              	.LVL38:
 771              	#NO_APP
 772              	.L30:
 773              	.LBE239:
 774              	.LBE238:
GAS LISTING /tmp/ccb4Yeeq.s 			page 25


 775              	.LBE237:
 776              	.LBE236:
 116:src/Handlers.cpp ****             Riscv::w_sepc(sepc + 4);
 777              		.loc 1 116 13 is_stmt 1
 778              		.loc 1 116 27 is_stmt 0
 779 040c 833784FB 		ld	a5,-72(s0)
 780              		.loc 1 116 26
 781 0410 93874700 		addi	a5,a5,4
 782              	.LVL39:
 783              	.LBB243:
 784              	.LBB244:
 143:src/../inc/riscv.hpp **** }
 785              		.loc 2 143 5 is_stmt 1
 143:src/../inc/riscv.hpp **** }
 786              		.loc 2 143 65 is_stmt 0
 787              	#APP
 788              	# 143 "src/../inc/riscv.hpp" 1
 789              		csrw sepc, a5
 790              	# 0 "" 2
 791              	.LVL40:
 792              	#NO_APP
 793              	.LBE244:
 794              	.LBE243:
 117:src/Handlers.cpp ****             Riscv::w_a0(ret);
 795              		.loc 1 117 13 is_stmt 1
 796              		.loc 1 117 24 is_stmt 0
 797 0418 833704FC 		ld	a5,-64(s0)
 798              	.LVL41:
 799              	.LBB245:
 800              	.LBB246:
 228:src/../inc/riscv.hpp **** }
 801              		.loc 2 228 5 is_stmt 1
 228:src/../inc/riscv.hpp **** }
 802              		.loc 2 228 55 is_stmt 0
 803              	#APP
 804              	# 228 "src/../inc/riscv.hpp" 1
 229:src/../inc/riscv.hpp **** 
 805              		mv a0, a5
 806              	# 0 "" 2
 807              		.loc 2 229 1
 808              	#NO_APP
 809 0420 6F008003 		j	.L1
 810              	.LVL42:
 811              	.L20:
 812              	.LBE246:
 813              	.LBE245:
  36:src/Handlers.cpp ****             ret = (uint64) MemoryAllocator::instance().malloc_blocks(a1);
 814              		.loc 1 36 9 is_stmt 1
  37:src/Handlers.cpp ****             break;
 815              		.loc 1 37 13
  37:src/Handlers.cpp ****             break;
 816              		.loc 1 37 54 is_stmt 0
 817 0424 97000000 		call	_ZN15MemoryAllocator8instanceEv@plt
 817      E7800000 
 818              	.LVL43:
  37:src/Handlers.cpp ****             break;
 819              		.loc 1 37 69
GAS LISTING /tmp/ccb4Yeeq.s 			page 26


 820 042c 833504FE 		ld	a1,-32(s0)
 821 0430 97000000 		call	_ZN15MemoryAllocator13malloc_blocksEm@plt
 821      E7800000 
 822              	.LVL44:
  37:src/Handlers.cpp ****             break;
 823              		.loc 1 37 17
 824 0438 2330A4FC 		sd	a0,-64(s0)
  38:src/Handlers.cpp ****         case sysID::MEM_FREE:
 825              		.loc 1 38 13 is_stmt 1
 826              	.L22:
 118:src/Handlers.cpp ****             return;
 119:src/Handlers.cpp ****         default:
 120:src/Handlers.cpp ****             printStringS("ERROR: handleSyscalls.switch.default: \n");
 121:src/Handlers.cpp ****             Riscv::printStats();
 122:src/Handlers.cpp **** 
 123:src/Handlers.cpp ****             ret = 0;
 124:src/Handlers.cpp ****             return;
 125:src/Handlers.cpp ****         }
 126:src/Handlers.cpp ****         // prekidna rutina obradjena
 127:src/Handlers.cpp ****         Riscv::w_sstatus(sstatus);
 827              		.loc 1 127 9
 828              		.loc 1 127 25 is_stmt 0
 829 043c 833704FB 		ld	a5,-80(s0)
 830              	.LVL45:
 831              	.LBB247:
 832              	.LBB248:
 211:src/../inc/riscv.hpp **** }
 833              		.loc 2 211 5 is_stmt 1
 211:src/../inc/riscv.hpp **** }
 834              		.loc 2 211 77 is_stmt 0
 835              	#APP
 836              	# 211 "src/../inc/riscv.hpp" 1
 837              		csrw sstatus, a5
 838              	# 0 "" 2
 839              	.LVL46:
 840              	#NO_APP
 841              	.LBE248:
 842              	.LBE247:
 128:src/Handlers.cpp ****         Riscv::w_sepc(sepc + 4); /// in spec is ecall and +4 is next instruction
 843              		.loc 1 128 9 is_stmt 1
 844              		.loc 1 128 23 is_stmt 0
 845 0444 833784FB 		ld	a5,-72(s0)
 846              		.loc 1 128 22
 847 0448 93874700 		addi	a5,a5,4
 848              	.LVL47:
 849              	.LBB249:
 850              	.LBB250:
 143:src/../inc/riscv.hpp **** }
 851              		.loc 2 143 5 is_stmt 1
 143:src/../inc/riscv.hpp **** }
 852              		.loc 2 143 65 is_stmt 0
 853              	#APP
 854              	# 143 "src/../inc/riscv.hpp" 1
 855              		csrw sepc, a5
 856              	# 0 "" 2
 857              	.LVL48:
 858              	#NO_APP
GAS LISTING /tmp/ccb4Yeeq.s 			page 27


 859              	.LBE250:
 860              	.LBE249:
 129:src/Handlers.cpp ****         Riscv::w_a0(ret); /// write return value
 861              		.loc 1 129 9 is_stmt 1
 862              		.loc 1 129 20 is_stmt 0
 863 0450 833704FC 		ld	a5,-64(s0)
 864              	.LVL49:
 865              	.LBB251:
 866              	.LBB252:
 228:src/../inc/riscv.hpp **** }
 867              		.loc 2 228 5 is_stmt 1
 228:src/../inc/riscv.hpp **** }
 868              		.loc 2 228 55 is_stmt 0
 869              	#APP
 870              	# 228 "src/../inc/riscv.hpp" 1
 871              		mv a0, a5
 872              	# 0 "" 2
 873              	.LVL50:
 874              	#NO_APP
 875              	.L1:
 876              	.LBE252:
 877              	.LBE251:
 130:src/Handlers.cpp **** 
 131:src/Handlers.cpp **** 
 132:src/Handlers.cpp **** }
 878              		.loc 1 132 1
 879 0458 83308119 		ld	ra,408(sp)
 880              		.cfi_remember_state
 881              		.cfi_restore 1
 882 045c 03340119 		ld	s0,400(sp)
 883              		.cfi_restore 8
 884              		.cfi_def_cfa 2, 416
 885 0460 1301011A 		addi	sp,sp,416
 886              		.cfi_def_cfa_offset 0
 887 0464 67800000 		jr	ra
 888              	.L19:
 889              		.cfi_restore_state
  39:src/Handlers.cpp ****             ret = (int) MemoryAllocator::instance().free((void *) a1);
 890              		.loc 1 39 9 is_stmt 1
  40:src/Handlers.cpp ****             break;
 891              		.loc 1 40 13
  40:src/Handlers.cpp ****             break;
 892              		.loc 1 40 51 is_stmt 0
 893 0468 97000000 		call	_ZN15MemoryAllocator8instanceEv@plt
 893      E7800000 
 894              	.LVL51:
  40:src/Handlers.cpp ****             break;
 895              		.loc 1 40 57
 896 0470 833504FE 		ld	a1,-32(s0)
 897 0474 97000000 		call	_ZN15MemoryAllocator4freeEPv@plt
 897      E7800000 
 898              	.LVL52:
  40:src/Handlers.cpp ****             break;
 899              		.loc 1 40 17
 900 047c 2330A4FC 		sd	a0,-64(s0)
  41:src/Handlers.cpp ****         case sysID::THREAD_CREATE:
 901              		.loc 1 41 13 is_stmt 1
GAS LISTING /tmp/ccb4Yeeq.s 			page 28


 902 0480 6FF0DFFB 		j	.L22
 903              	.L18:
  42:src/Handlers.cpp ****             ret = (int) _thread::threadCreate((thread_t *) a1, (_thread::Body) a2, (void *) a3, (vo
 904              		.loc 1 42 9
  43:src/Handlers.cpp ****             break;
 905              		.loc 1 43 13
  43:src/Handlers.cpp ****             break;
 906              		.loc 1 43 46 is_stmt 0
 907 0484 033504FE 		ld	a0,-32(s0)
 908 0488 833584FD 		ld	a1,-40(s0)
 909 048c 033604FD 		ld	a2,-48(s0)
 910 0490 833684FC 		ld	a3,-56(s0)
 911 0494 97000000 		call	_ZN7_thread12threadCreateEPPS_PFvPvES2_S2_@plt
 911      E7800000 
 912              	.LVL53:
  43:src/Handlers.cpp ****             break;
 913              		.loc 1 43 17
 914 049c 2330A4FC 		sd	a0,-64(s0)
  44:src/Handlers.cpp ****         case sysID::THREAD_EXIT:
 915              		.loc 1 44 13 is_stmt 1
 916 04a0 6FF0DFF9 		j	.L22
 917              	.L17:
  45:src/Handlers.cpp ****             ret = (int) _thread::threadExit(); /// will return if error
 918              		.loc 1 45 9
  46:src/Handlers.cpp ****             break;
 919              		.loc 1 46 13
  46:src/Handlers.cpp ****             break;
 920              		.loc 1 46 44 is_stmt 0
 921 04a4 97000000 		call	_ZN7_thread10threadExitEv@plt
 921      E7800000 
 922              	.LVL54:
  46:src/Handlers.cpp ****             break;
 923              		.loc 1 46 17
 924 04ac 2330A4FC 		sd	a0,-64(s0)
  47:src/Handlers.cpp ****         case sysID::THREAD_DISPATCH:
 925              		.loc 1 47 13 is_stmt 1
 926 04b0 6FF0DFF8 		j	.L22
 927              	.L16:
  48:src/Handlers.cpp ****             /// it returns void
 928              		.loc 1 48 9
  51:src/Handlers.cpp ****             /// change context
 929              		.loc 1 51 13
  51:src/Handlers.cpp ****             /// change context
 930              		.loc 1 51 39 is_stmt 0
 931 04b4 97070000 		la	a5,_ZN7_thread16timeSliceCounterE
 931      83B70700 
 932 04bc 23B00700 		sd	zero,0(a5)
  53:src/Handlers.cpp ****             /// from new thread stack restore sstatus and sepc
 933              		.loc 1 53 13 is_stmt 1
  53:src/Handlers.cpp ****             /// from new thread stack restore sstatus and sepc
 934              		.loc 1 53 30 is_stmt 0
 935 04c0 97000000 		call	_ZN7_thread8dispatchEv@plt
 935      E7800000 
 936              	.LVL55:
  56:src/Handlers.cpp ****         case sysID::SEM_OPEN:
 937              		.loc 1 56 13 is_stmt 1
 938 04c8 6FF05FF7 		j	.L22
GAS LISTING /tmp/ccb4Yeeq.s 			page 29


 939              	.L15:
  57:src/Handlers.cpp ****             ret = (int)_sem::semOpen((sem_t *)a1, (int)a2);
 940              		.loc 1 57 9
  58:src/Handlers.cpp ****             break;
 941              		.loc 1 58 13
  58:src/Handlers.cpp ****             break;
 942              		.loc 1 58 37 is_stmt 0
 943 04cc 033504FE 		ld	a0,-32(s0)
 944 04d0 833584FD 		ld	a1,-40(s0)
 945 04d4 9B850500 		sext.w	a1,a1
 946 04d8 97000000 		call	_ZN4_sem7semOpenEPPS_i@plt
 946      E7800000 
 947              	.LVL56:
  58:src/Handlers.cpp ****             break;
 948              		.loc 1 58 17
 949 04e0 2330A4FC 		sd	a0,-64(s0)
  59:src/Handlers.cpp ****         case sysID::SEM_CLOSE:
 950              		.loc 1 59 13 is_stmt 1
 951 04e4 6FF09FF5 		j	.L22
 952              	.L14:
  60:src/Handlers.cpp ****             if(!_sem::validSemaphore((sem_t)a1)){
 953              		.loc 1 60 9
  61:src/Handlers.cpp ****                 ret = -1;
 954              		.loc 1 61 13
  61:src/Handlers.cpp ****                 ret = -1;
 955              		.loc 1 61 37 is_stmt 0
 956 04e8 033504FE 		ld	a0,-32(s0)
 957 04ec 97000000 		call	_ZN4_sem14validSemaphoreEPS_@plt
 957      E7800000 
 958              	.LVL57:
  61:src/Handlers.cpp ****                 ret = -1;
 959              		.loc 1 61 13
 960 04f4 63180500 		bnez	a0,.L23
  62:src/Handlers.cpp ****                 break;
 961              		.loc 1 62 17 is_stmt 1
  62:src/Handlers.cpp ****                 break;
 962              		.loc 1 62 21 is_stmt 0
 963 04f8 9307F0FF 		li	a5,-1
 964 04fc 2330F4FC 		sd	a5,-64(s0)
  63:src/Handlers.cpp ****             }
 965              		.loc 1 63 17 is_stmt 1
 966 0500 6FF0DFF3 		j	.L22
 967              	.L23:
  65:src/Handlers.cpp ****             ret = MemoryAllocator::instance().free((void *)a1); // deallocate semaphore, used in C 
 968              		.loc 1 65 13
  65:src/Handlers.cpp ****             ret = MemoryAllocator::instance().free((void *)a1); // deallocate semaphore, used in C 
 969              		.loc 1 65 34 is_stmt 0
 970 0504 033504FE 		ld	a0,-32(s0)
 971 0508 97000000 		call	_ZN4_sem8semCloseEv@plt
 971      E7800000 
 972              	.LVL58:
  66:src/Handlers.cpp ****             break;
 973              		.loc 1 66 13 is_stmt 1
  66:src/Handlers.cpp ****             break;
 974              		.loc 1 66 45 is_stmt 0
 975 0510 97000000 		call	_ZN15MemoryAllocator8instanceEv@plt
 975      E7800000 
GAS LISTING /tmp/ccb4Yeeq.s 			page 30


 976              	.LVL59:
  66:src/Handlers.cpp ****             break;
 977              		.loc 1 66 51
 978 0518 833504FE 		ld	a1,-32(s0)
 979 051c 97000000 		call	_ZN15MemoryAllocator4freeEPv@plt
 979      E7800000 
 980              	.LVL60:
  66:src/Handlers.cpp ****             break;
 981              		.loc 1 66 17
 982 0524 2330A4FC 		sd	a0,-64(s0)
  67:src/Handlers.cpp ****         case sysID::SEM_WAIT:// can change context: yes
 983              		.loc 1 67 13 is_stmt 1
 984 0528 6FF05FF1 		j	.L22
 985              	.L13:
  68:src/Handlers.cpp ****             if(!_sem::validSemaphore((sem_t)a1)){
 986              		.loc 1 68 9
  69:src/Handlers.cpp ****                 ret = -1;
 987              		.loc 1 69 13
  69:src/Handlers.cpp ****                 ret = -1;
 988              		.loc 1 69 37 is_stmt 0
 989 052c 033504FE 		ld	a0,-32(s0)
 990 0530 97000000 		call	_ZN4_sem14validSemaphoreEPS_@plt
 990      E7800000 
 991              	.LVL61:
  69:src/Handlers.cpp ****                 ret = -1;
 992              		.loc 1 69 13
 993 0538 63180500 		bnez	a0,.L24
  70:src/Handlers.cpp ****                 break;
 994              		.loc 1 70 17 is_stmt 1
  70:src/Handlers.cpp ****                 break;
 995              		.loc 1 70 21 is_stmt 0
 996 053c 9307F0FF 		li	a5,-1
 997 0540 2330F4FC 		sd	a5,-64(s0)
  71:src/Handlers.cpp ****             }
 998              		.loc 1 71 17 is_stmt 1
 999 0544 6FF09FEF 		j	.L22
 1000              	.L24:
  73:src/Handlers.cpp ****             break;
 1001              		.loc 1 73 13
  73:src/Handlers.cpp ****             break;
 1002              		.loc 1 73 44 is_stmt 0
 1003 0548 033504FE 		ld	a0,-32(s0)
 1004 054c 13060000 		li	a2,0
 1005 0550 93050000 		li	a1,0
 1006 0554 97000000 		call	_ZN4_sem7semWaitEmb@plt
 1006      E7800000 
 1007              	.LVL62:
  73:src/Handlers.cpp ****             break;
 1008              		.loc 1 73 17
 1009 055c 2330A4FC 		sd	a0,-64(s0)
  74:src/Handlers.cpp ****         case sysID::SEM_SIGNAL:
 1010              		.loc 1 74 13 is_stmt 1
 1011 0560 6FF0DFED 		j	.L22
 1012              	.L12:
  75:src/Handlers.cpp ****             if(!_sem::validSemaphore((sem_t)a1)){
 1013              		.loc 1 75 9
  76:src/Handlers.cpp ****                 ret = -1;
GAS LISTING /tmp/ccb4Yeeq.s 			page 31


 1014              		.loc 1 76 13
  76:src/Handlers.cpp ****                 ret = -1;
 1015              		.loc 1 76 37 is_stmt 0
 1016 0564 033504FE 		ld	a0,-32(s0)
 1017 0568 97000000 		call	_ZN4_sem14validSemaphoreEPS_@plt
 1017      E7800000 
 1018              	.LVL63:
  76:src/Handlers.cpp ****                 ret = -1;
 1019              		.loc 1 76 13
 1020 0570 63180500 		bnez	a0,.L25
  77:src/Handlers.cpp ****                 break;
 1021              		.loc 1 77 17 is_stmt 1
  77:src/Handlers.cpp ****                 break;
 1022              		.loc 1 77 21 is_stmt 0
 1023 0574 9307F0FF 		li	a5,-1
 1024 0578 2330F4FC 		sd	a5,-64(s0)
  78:src/Handlers.cpp ****             }
 1025              		.loc 1 78 17 is_stmt 1
 1026 057c 6FF01FEC 		j	.L22
 1027              	.L25:
  80:src/Handlers.cpp ****             break;
 1028              		.loc 1 80 13
  80:src/Handlers.cpp ****             break;
 1029              		.loc 1 80 46 is_stmt 0
 1030 0580 033504FE 		ld	a0,-32(s0)
 1031 0584 97000000 		call	_ZN4_sem9semSignalEv@plt
 1031      E7800000 
 1032              	.LVL64:
  80:src/Handlers.cpp ****             break;
 1033              		.loc 1 80 17
 1034 058c 2330A4FC 		sd	a0,-64(s0)
  81:src/Handlers.cpp ****         case sysID::SEM_TIMEDWAIT:// can change context: yes
 1035              		.loc 1 81 13 is_stmt 1
 1036 0590 6FF0DFEA 		j	.L22
 1037              	.L11:
  82:src/Handlers.cpp ****             if(!_sem::validSemaphore((sem_t)a1)){
 1038              		.loc 1 82 9
  83:src/Handlers.cpp ****                 ret = -1; // SEMDEAD
 1039              		.loc 1 83 13
  83:src/Handlers.cpp ****                 ret = -1; // SEMDEAD
 1040              		.loc 1 83 37 is_stmt 0
 1041 0594 033504FE 		ld	a0,-32(s0)
 1042 0598 97000000 		call	_ZN4_sem14validSemaphoreEPS_@plt
 1042      E7800000 
 1043              	.LVL65:
  83:src/Handlers.cpp ****                 ret = -1; // SEMDEAD
 1044              		.loc 1 83 13
 1045 05a0 63180500 		bnez	a0,.L26
  84:src/Handlers.cpp ****                 break;
 1046              		.loc 1 84 17 is_stmt 1
  84:src/Handlers.cpp ****                 break;
 1047              		.loc 1 84 21 is_stmt 0
 1048 05a4 9307F0FF 		li	a5,-1
 1049 05a8 2330F4FC 		sd	a5,-64(s0)
  85:src/Handlers.cpp ****             }
 1050              		.loc 1 85 17 is_stmt 1
 1051 05ac 6FF01FE9 		j	.L22
GAS LISTING /tmp/ccb4Yeeq.s 			page 32


 1052              	.L26:
  87:src/Handlers.cpp ****             break;
 1053              		.loc 1 87 13
  87:src/Handlers.cpp ****             break;
 1054              		.loc 1 87 44 is_stmt 0
 1055 05b0 033504FE 		ld	a0,-32(s0)
 1056 05b4 833584FD 		ld	a1,-40(s0)
 1057 05b8 13061000 		li	a2,1
 1058 05bc 97000000 		call	_ZN4_sem7semWaitEmb@plt
 1058      E7800000 
 1059              	.LVL66:
  87:src/Handlers.cpp ****             break;
 1060              		.loc 1 87 17
 1061 05c4 2330A4FC 		sd	a0,-64(s0)
  88:src/Handlers.cpp ****         case sysID::SEM_TRYWAIT:
 1062              		.loc 1 88 13 is_stmt 1
 1063 05c8 6FF05FE7 		j	.L22
 1064              	.L10:
  89:src/Handlers.cpp ****             if(!_sem::validSemaphore((sem_t)a1)){
 1065              		.loc 1 89 9
  90:src/Handlers.cpp ****                 ret = -1;
 1066              		.loc 1 90 13
  90:src/Handlers.cpp ****                 ret = -1;
 1067              		.loc 1 90 37 is_stmt 0
 1068 05cc 033504FE 		ld	a0,-32(s0)
 1069 05d0 97000000 		call	_ZN4_sem14validSemaphoreEPS_@plt
 1069      E7800000 
 1070              	.LVL67:
  90:src/Handlers.cpp ****                 ret = -1;
 1071              		.loc 1 90 13
 1072 05d8 63180500 		bnez	a0,.L27
  91:src/Handlers.cpp ****                 break;
 1073              		.loc 1 91 17 is_stmt 1
  91:src/Handlers.cpp ****                 break;
 1074              		.loc 1 91 21 is_stmt 0
 1075 05dc 9307F0FF 		li	a5,-1
 1076 05e0 2330F4FC 		sd	a5,-64(s0)
  92:src/Handlers.cpp ****             }
 1077              		.loc 1 92 17 is_stmt 1
 1078 05e4 6FF09FE5 		j	.L22
 1079              	.L27:
  94:src/Handlers.cpp ****             break;
 1080              		.loc 1 94 13
  94:src/Handlers.cpp ****             break;
 1081              		.loc 1 94 47 is_stmt 0
 1082 05e8 033504FE 		ld	a0,-32(s0)
 1083 05ec 97000000 		call	_ZN4_sem10semTryWaitEv@plt
 1083      E7800000 
 1084              	.LVL68:
  94:src/Handlers.cpp ****             break;
 1085              		.loc 1 94 17
 1086 05f4 2330A4FC 		sd	a0,-64(s0)
  95:src/Handlers.cpp ****         case sysID::TIME_SLEEP: // can change context: yes
 1087              		.loc 1 95 13 is_stmt 1
 1088 05f8 6FF05FE4 		j	.L22
 1089              	.L9:
  96:src/Handlers.cpp ****             ret = (int)(_thread::timeSleep((time_t)a1));
GAS LISTING /tmp/ccb4Yeeq.s 			page 33


 1090              		.loc 1 96 9
  97:src/Handlers.cpp ****             break;
 1091              		.loc 1 97 13
  97:src/Handlers.cpp ****             break;
 1092              		.loc 1 97 43 is_stmt 0
 1093 05fc 033504FE 		ld	a0,-32(s0)
 1094 0600 97000000 		call	_ZN7_thread9timeSleepEm@plt
 1094      E7800000 
 1095              	.LVL69:
  97:src/Handlers.cpp ****             break;
 1096              		.loc 1 97 17
 1097 0608 2330A4FC 		sd	a0,-64(s0)
  98:src/Handlers.cpp ****         case sysID::GET_C:
 1098              		.loc 1 98 13 is_stmt 1
 1099 060c 6FF01FE3 		j	.L22
 1100              	.L8:
  99:src/Handlers.cpp ****             ret = (char)_console::getcBuffer->get();
 1101              		.loc 1 99 9
 100:src/Handlers.cpp ****             break;
 1102              		.loc 1 100 13
 100:src/Handlers.cpp ****             break;
 1103              		.loc 1 100 50 is_stmt 0
 1104 0610 97070000 		la	a5,_ZN8_console10getcBufferE
 1104      83B70700 
 1105 0618 03B50700 		ld	a0,0(a5)
 1106 061c 97000000 		call	_ZN13ConsoleBuffer3getEv@plt
 1106      E7800000 
 1107              	.LVL70:
 100:src/Handlers.cpp ****             break;
 1108              		.loc 1 100 17
 1109 0624 2330A4FC 		sd	a0,-64(s0)
 101:src/Handlers.cpp ****         case sysID::PUT_C:
 1110              		.loc 1 101 13 is_stmt 1
 1111 0628 6FF05FE1 		j	.L22
 1112              	.L6:
 102:src/Handlers.cpp ****             _console::putcBuffer->put(a1);
 1113              		.loc 1 102 9
 103:src/Handlers.cpp ****             break;
 1114              		.loc 1 103 13
 103:src/Handlers.cpp ****             break;
 1115              		.loc 1 103 38 is_stmt 0
 1116 062c 833504FE 		ld	a1,-32(s0)
 1117 0630 93F5F50F 		andi	a1,a1,0xff
 1118 0634 97070000 		la	a5,_ZN8_console10putcBufferE
 1118      83B70700 
 1119 063c 03B50700 		ld	a0,0(a5)
 1120 0640 97000000 		call	_ZN13ConsoleBuffer3putEc@plt
 1120      E7800000 
 1121              	.LVL71:
 104:src/Handlers.cpp ****         case sysID::CHANGE_MODE:
 1122              		.loc 1 104 13 is_stmt 1
 1123 0648 6FF05FDF 		j	.L22
 1124              	.L33:
 109:src/Handlers.cpp ****                 Riscv::printStats();
 1125              		.loc 1 109 17
 109:src/Handlers.cpp ****                 Riscv::printStats();
 1126              		.loc 1 109 29 is_stmt 0
GAS LISTING /tmp/ccb4Yeeq.s 			page 34


 1127 064c 17050000 		lla	a0,.LC15
 1127      13050500 
 1128 0654 97000000 		call	_Z12printStringSPKc@plt
 1128      E7800000 
 1129              	.LVL72:
 110:src/Handlers.cpp ****                 Riscv::halt();
 1130              		.loc 1 110 17 is_stmt 1
 1131              	.LBB253:
 1132              	.LBB254:
 293:src/../inc/riscv.hpp ****     printStringS("scause: ");printIntS(r_scause(), 16);printStringS("\t");
 1133              		.loc 2 293 5
 293:src/../inc/riscv.hpp ****     printStringS("scause: ");printIntS(r_scause(), 16);printStringS("\t");
 1134              		.loc 2 293 17 is_stmt 0
 1135 065c 17050000 		lla	a0,.LC1
 1135      13050500 
 1136 0664 97000000 		call	_Z12printStringSPKc@plt
 1136      E7800000 
 1137              	.LVL73:
 294:src/../inc/riscv.hpp ****     printStringS("sstatus: ");printIntS(r_sstatus(), 16);printStringS("\t");
 1138              		.loc 2 294 5 is_stmt 1
 294:src/../inc/riscv.hpp ****     printStringS("sstatus: ");printIntS(r_sstatus(), 16);printStringS("\t");
 1139              		.loc 2 294 17 is_stmt 0
 1140 066c 17050000 		lla	a0,.LC2
 1140      13050500 
 1141 0674 97000000 		call	_Z12printStringSPKc@plt
 1141      E7800000 
 1142              	.LVL74:
 294:src/../inc/riscv.hpp ****     printStringS("sstatus: ");printIntS(r_sstatus(), 16);printStringS("\t");
 1143              		.loc 2 294 30 is_stmt 1
 1144              	.LBB255:
 1145              	.LBB256:
 124:src/../inc/riscv.hpp ****     __asm__ volatile ("csrr %[scause], scause" : [scause] "=r"(scause));
 1146              		.loc 2 124 5
 125:src/../inc/riscv.hpp ****     return scause;
 1147              		.loc 2 125 5
 125:src/../inc/riscv.hpp ****     return scause;
 1148              		.loc 2 125 72 is_stmt 0
 1149              	#APP
 1150              	# 125 "src/../inc/riscv.hpp" 1
 1151              		csrr a5, scause
 1152              	# 0 "" 2
 1153              	#NO_APP
 1154 0680 233CF4EE 		sd	a5,-264(s0)
 126:src/../inc/riscv.hpp **** }
 1155              		.loc 2 126 5 is_stmt 1
 126:src/../inc/riscv.hpp **** }
 1156              		.loc 2 126 12 is_stmt 0
 1157 0684 033584EF 		ld	a0,-264(s0)
 1158              	.LBE256:
 1159              	.LBE255:
 294:src/../inc/riscv.hpp ****     printStringS("sstatus: ");printIntS(r_sstatus(), 16);printStringS("\t");
 1160              		.loc 2 294 39
 1161 0688 13060000 		li	a2,0
 1162 068c 93050001 		li	a1,16
 1163 0690 1B050500 		sext.w	a0,a0
 1164 0694 97000000 		call	_Z9printIntSiii@plt
 1164      E7800000 
GAS LISTING /tmp/ccb4Yeeq.s 			page 35


 1165              	.LVL75:
 294:src/../inc/riscv.hpp ****     printStringS("sstatus: ");printIntS(r_sstatus(), 16);printStringS("\t");
 1166              		.loc 2 294 56 is_stmt 1
 294:src/../inc/riscv.hpp ****     printStringS("sstatus: ");printIntS(r_sstatus(), 16);printStringS("\t");
 1167              		.loc 2 294 68 is_stmt 0
 1168 069c 17050000 		lla	a0,.LC3
 1168      13050500 
 1169 06a4 97000000 		call	_Z12printStringSPKc@plt
 1169      E7800000 
 1170              	.LVL76:
 295:src/../inc/riscv.hpp ****     printStringS("sepc: ");printIntS(r_sepc(), 16);printStringS("\t");
 1171              		.loc 2 295 5 is_stmt 1
 295:src/../inc/riscv.hpp ****     printStringS("sepc: ");printIntS(r_sepc(), 16);printStringS("\t");
 1172              		.loc 2 295 17 is_stmt 0
 1173 06ac 17050000 		lla	a0,.LC4
 1173      13050500 
 1174 06b4 97000000 		call	_Z12printStringSPKc@plt
 1174      E7800000 
 1175              	.LVL77:
 295:src/../inc/riscv.hpp ****     printStringS("sepc: ");printIntS(r_sepc(), 16);printStringS("\t");
 1176              		.loc 2 295 31 is_stmt 1
 1177              	.LBB257:
 1178              	.LBB258:
 204:src/../inc/riscv.hpp ****     __asm__ volatile ("csrr %[sstatus], sstatus" : [sstatus] "=r"(sstatus));
 1179              		.loc 2 204 5
 205:src/../inc/riscv.hpp ****     return sstatus;
 1180              		.loc 2 205 5
 205:src/../inc/riscv.hpp ****     return sstatus;
 1181              		.loc 2 205 76 is_stmt 0
 1182              	#APP
 1183              	# 205 "src/../inc/riscv.hpp" 1
 1184              		csrr a5, sstatus
 1185              	# 0 "" 2
 1186              	#NO_APP
 1187 06c0 2330F4F0 		sd	a5,-256(s0)
 206:src/../inc/riscv.hpp **** }
 1188              		.loc 2 206 5 is_stmt 1
 206:src/../inc/riscv.hpp **** }
 1189              		.loc 2 206 12 is_stmt 0
 1190 06c4 033504F0 		ld	a0,-256(s0)
 1191              	.LBE258:
 1192              	.LBE257:
 295:src/../inc/riscv.hpp ****     printStringS("sepc: ");printIntS(r_sepc(), 16);printStringS("\t");
 1193              		.loc 2 295 40
 1194 06c8 13060000 		li	a2,0
 1195 06cc 93050001 		li	a1,16
 1196 06d0 1B050500 		sext.w	a0,a0
 1197 06d4 97000000 		call	_Z9printIntSiii@plt
 1197      E7800000 
 1198              	.LVL78:
 295:src/../inc/riscv.hpp ****     printStringS("sepc: ");printIntS(r_sepc(), 16);printStringS("\t");
 1199              		.loc 2 295 58 is_stmt 1
 295:src/../inc/riscv.hpp ****     printStringS("sepc: ");printIntS(r_sepc(), 16);printStringS("\t");
 1200              		.loc 2 295 70 is_stmt 0
 1201 06dc 17050000 		lla	a0,.LC3
 1201      13050500 
 1202 06e4 97000000 		call	_Z12printStringSPKc@plt
GAS LISTING /tmp/ccb4Yeeq.s 			page 36


 1202      E7800000 
 1203              	.LVL79:
 296:src/../inc/riscv.hpp ****     printStringS("sip: ");printIntS(r_sip(), 16);printStringS("\t");
 1204              		.loc 2 296 5 is_stmt 1
 296:src/../inc/riscv.hpp ****     printStringS("sip: ");printIntS(r_sip(), 16);printStringS("\t");
 1205              		.loc 2 296 17 is_stmt 0
 1206 06ec 17050000 		lla	a0,.LC5
 1206      13050500 
 1207 06f4 97000000 		call	_Z12printStringSPKc@plt
 1207      E7800000 
 1208              	.LVL80:
 296:src/../inc/riscv.hpp ****     printStringS("sip: ");printIntS(r_sip(), 16);printStringS("\t");
 1209              		.loc 2 296 28 is_stmt 1
 1210              	.LBB259:
 1211              	.LBB260:
 136:src/../inc/riscv.hpp ****     __asm__ volatile ("csrr %[sepc], sepc" : [sepc] "=r"(sepc));
 1212              		.loc 2 136 5
 137:src/../inc/riscv.hpp ****     return sepc;
 1213              		.loc 2 137 5
 137:src/../inc/riscv.hpp ****     return sepc;
 1214              		.loc 2 137 64 is_stmt 0
 1215              	#APP
 1216              	# 137 "src/../inc/riscv.hpp" 1
 1217              		csrr a5, sepc
 1218              	# 0 "" 2
 1219              	#NO_APP
 1220 0700 2334F4F0 		sd	a5,-248(s0)
 138:src/../inc/riscv.hpp **** }
 1221              		.loc 2 138 5 is_stmt 1
 138:src/../inc/riscv.hpp **** }
 1222              		.loc 2 138 12 is_stmt 0
 1223 0704 033584F0 		ld	a0,-248(s0)
 1224              	.LBE260:
 1225              	.LBE259:
 296:src/../inc/riscv.hpp ****     printStringS("sip: ");printIntS(r_sip(), 16);printStringS("\t");
 1226              		.loc 2 296 37
 1227 0708 13060000 		li	a2,0
 1228 070c 93050001 		li	a1,16
 1229 0710 1B050500 		sext.w	a0,a0
 1230 0714 97000000 		call	_Z9printIntSiii@plt
 1230      E7800000 
 1231              	.LVL81:
 296:src/../inc/riscv.hpp ****     printStringS("sip: ");printIntS(r_sip(), 16);printStringS("\t");
 1232              		.loc 2 296 52 is_stmt 1
 296:src/../inc/riscv.hpp ****     printStringS("sip: ");printIntS(r_sip(), 16);printStringS("\t");
 1233              		.loc 2 296 64 is_stmt 0
 1234 071c 17050000 		lla	a0,.LC3
 1234      13050500 
 1235 0724 97000000 		call	_Z12printStringSPKc@plt
 1235      E7800000 
 1236              	.LVL82:
 297:src/../inc/riscv.hpp ****     printStringS("stval: ");printIntS(r_stval(), 16);printStringS("\t");
 1237              		.loc 2 297 5 is_stmt 1
 297:src/../inc/riscv.hpp ****     printStringS("stval: ");printIntS(r_stval(), 16);printStringS("\t");
 1238              		.loc 2 297 17 is_stmt 0
 1239 072c 17050000 		lla	a0,.LC6
 1239      13050500 
GAS LISTING /tmp/ccb4Yeeq.s 			page 37


 1240 0734 97000000 		call	_Z12printStringSPKc@plt
 1240      E7800000 
 1241              	.LVL83:
 297:src/../inc/riscv.hpp ****     printStringS("stval: ");printIntS(r_stval(), 16);printStringS("\t");
 1242              		.loc 2 297 27 is_stmt 1
 1243              	.LBB261:
 1244              	.LBB262:
 182:src/../inc/riscv.hpp ****     __asm__ volatile ("csrr %[sip], sip" : [sip] "=r"(sip));
 1245              		.loc 2 182 5
 183:src/../inc/riscv.hpp ****     return sip;
 1246              		.loc 2 183 5
 183:src/../inc/riscv.hpp ****     return sip;
 1247              		.loc 2 183 60 is_stmt 0
 1248              	#APP
 1249              	# 183 "src/../inc/riscv.hpp" 1
 1250              		csrr a5, sip
 1251              	# 0 "" 2
 1252              	#NO_APP
 1253 0740 2338F4F0 		sd	a5,-240(s0)
 184:src/../inc/riscv.hpp **** }
 1254              		.loc 2 184 5 is_stmt 1
 184:src/../inc/riscv.hpp **** }
 1255              		.loc 2 184 12 is_stmt 0
 1256 0744 033504F1 		ld	a0,-240(s0)
 1257              	.LBE262:
 1258              	.LBE261:
 297:src/../inc/riscv.hpp ****     printStringS("stval: ");printIntS(r_stval(), 16);printStringS("\t");
 1259              		.loc 2 297 36
 1260 0748 13060000 		li	a2,0
 1261 074c 93050001 		li	a1,16
 1262 0750 1B050500 		sext.w	a0,a0
 1263 0754 97000000 		call	_Z9printIntSiii@plt
 1263      E7800000 
 1264              	.LVL84:
 297:src/../inc/riscv.hpp ****     printStringS("stval: ");printIntS(r_stval(), 16);printStringS("\t");
 1265              		.loc 2 297 50 is_stmt 1
 297:src/../inc/riscv.hpp ****     printStringS("stval: ");printIntS(r_stval(), 16);printStringS("\t");
 1266              		.loc 2 297 62 is_stmt 0
 1267 075c 17050000 		lla	a0,.LC3
 1267      13050500 
 1268 0764 97000000 		call	_Z12printStringSPKc@plt
 1268      E7800000 
 1269              	.LVL85:
 298:src/../inc/riscv.hpp ****     printStringS("stvec: ");printIntS(r_stvec(), 16);printStringS("\n\t\t");
 1270              		.loc 2 298 5 is_stmt 1
 298:src/../inc/riscv.hpp ****     printStringS("stvec: ");printIntS(r_stvec(), 16);printStringS("\n\t\t");
 1271              		.loc 2 298 17 is_stmt 0
 1272 076c 17050000 		lla	a0,.LC7
 1272      13050500 
 1273 0774 97000000 		call	_Z12printStringSPKc@plt
 1273      E7800000 
 1274              	.LVL86:
 298:src/../inc/riscv.hpp ****     printStringS("stvec: ");printIntS(r_stvec(), 16);printStringS("\n\t\t");
 1275              		.loc 2 298 29 is_stmt 1
 1276              	.LBB263:
 1277              	.LBB264:
 160:src/../inc/riscv.hpp ****     __asm__ volatile ("csrr %[stval], stval" : [stval] "=r"(stval));
GAS LISTING /tmp/ccb4Yeeq.s 			page 38


 1278              		.loc 2 160 5
 161:src/../inc/riscv.hpp ****     return stval;
 1279              		.loc 2 161 5
 161:src/../inc/riscv.hpp ****     return stval;
 1280              		.loc 2 161 68 is_stmt 0
 1281              	#APP
 1282              	# 161 "src/../inc/riscv.hpp" 1
 1283              		csrr a5, stval
 1284              	# 0 "" 2
 1285              	#NO_APP
 1286 0780 233CF4F0 		sd	a5,-232(s0)
 162:src/../inc/riscv.hpp **** }
 1287              		.loc 2 162 5 is_stmt 1
 162:src/../inc/riscv.hpp **** }
 1288              		.loc 2 162 12 is_stmt 0
 1289 0784 033584F1 		ld	a0,-232(s0)
 1290              	.LBE264:
 1291              	.LBE263:
 298:src/../inc/riscv.hpp ****     printStringS("stvec: ");printIntS(r_stvec(), 16);printStringS("\n\t\t");
 1292              		.loc 2 298 38
 1293 0788 13060000 		li	a2,0
 1294 078c 93050001 		li	a1,16
 1295 0790 1B050500 		sext.w	a0,a0
 1296 0794 97000000 		call	_Z9printIntSiii@plt
 1296      E7800000 
 1297              	.LVL87:
 298:src/../inc/riscv.hpp ****     printStringS("stvec: ");printIntS(r_stvec(), 16);printStringS("\n\t\t");
 1298              		.loc 2 298 54 is_stmt 1
 298:src/../inc/riscv.hpp ****     printStringS("stvec: ");printIntS(r_stvec(), 16);printStringS("\n\t\t");
 1299              		.loc 2 298 66 is_stmt 0
 1300 079c 17050000 		lla	a0,.LC3
 1300      13050500 
 1301 07a4 97000000 		call	_Z12printStringSPKc@plt
 1301      E7800000 
 1302              	.LVL88:
 299:src/../inc/riscv.hpp ****     printStringS("a0: ");printIntS(r_a0(), 16);printStringS("\t");
 1303              		.loc 2 299 5 is_stmt 1
 299:src/../inc/riscv.hpp ****     printStringS("a0: ");printIntS(r_a0(), 16);printStringS("\t");
 1304              		.loc 2 299 17 is_stmt 0
 1305 07ac 17050000 		lla	a0,.LC8
 1305      13050500 
 1306 07b4 97000000 		call	_Z12printStringSPKc@plt
 1306      E7800000 
 1307              	.LVL89:
 299:src/../inc/riscv.hpp ****     printStringS("a0: ");printIntS(r_a0(), 16);printStringS("\t");
 1308              		.loc 2 299 29 is_stmt 1
 1309              	.LBB265:
 1310              	.LBB266:
 148:src/../inc/riscv.hpp ****     __asm__ volatile ("csrr %[stvec], stvec" : [stvec] "=r"(stvec));
 1311              		.loc 2 148 5
 149:src/../inc/riscv.hpp ****     return stvec;
 1312              		.loc 2 149 5
 149:src/../inc/riscv.hpp ****     return stvec;
 1313              		.loc 2 149 68 is_stmt 0
 1314              	#APP
 1315              	# 149 "src/../inc/riscv.hpp" 1
 1316              		csrr a5, stvec
GAS LISTING /tmp/ccb4Yeeq.s 			page 39


 1317              	# 0 "" 2
 1318              	#NO_APP
 1319 07c0 2330F4F2 		sd	a5,-224(s0)
 150:src/../inc/riscv.hpp **** }
 1320              		.loc 2 150 5 is_stmt 1
 150:src/../inc/riscv.hpp **** }
 1321              		.loc 2 150 12 is_stmt 0
 1322 07c4 033504F2 		ld	a0,-224(s0)
 1323              	.LBE266:
 1324              	.LBE265:
 299:src/../inc/riscv.hpp ****     printStringS("a0: ");printIntS(r_a0(), 16);printStringS("\t");
 1325              		.loc 2 299 38
 1326 07c8 13060000 		li	a2,0
 1327 07cc 93050001 		li	a1,16
 1328 07d0 1B050500 		sext.w	a0,a0
 1329 07d4 97000000 		call	_Z9printIntSiii@plt
 1329      E7800000 
 1330              	.LVL90:
 299:src/../inc/riscv.hpp ****     printStringS("a0: ");printIntS(r_a0(), 16);printStringS("\t");
 1331              		.loc 2 299 54 is_stmt 1
 299:src/../inc/riscv.hpp ****     printStringS("a0: ");printIntS(r_a0(), 16);printStringS("\t");
 1332              		.loc 2 299 66 is_stmt 0
 1333 07dc 17050000 		lla	a0,.LC9
 1333      13050500 
 1334 07e4 97000000 		call	_Z12printStringSPKc@plt
 1334      E7800000 
 1335              	.LVL91:
 300:src/../inc/riscv.hpp ****     printStringS("a1: ");printIntS(r_a1(), 16);printStringS("\t");
 1336              		.loc 2 300 5 is_stmt 1
 300:src/../inc/riscv.hpp ****     printStringS("a1: ");printIntS(r_a1(), 16);printStringS("\t");
 1337              		.loc 2 300 17 is_stmt 0
 1338 07ec 17050000 		lla	a0,.LC10
 1338      13050500 
 1339 07f4 97000000 		call	_Z12printStringSPKc@plt
 1339      E7800000 
 1340              	.LVL92:
 300:src/../inc/riscv.hpp ****     printStringS("a1: ");printIntS(r_a1(), 16);printStringS("\t");
 1341              		.loc 2 300 26 is_stmt 1
 1342              	.LBB267:
 1343              	.LBB268:
 222:src/../inc/riscv.hpp ****     __asm__ volatile ("mv %[a0], a0" : [a0] "=r"(a0));
 1344              		.loc 2 222 5
 223:src/../inc/riscv.hpp ****     return a0;
 1345              		.loc 2 223 5
 223:src/../inc/riscv.hpp ****     return a0;
 1346              		.loc 2 223 54 is_stmt 0
 1347              	#APP
 1348              	# 223 "src/../inc/riscv.hpp" 1
 1349              		mv a5, a0
 1350              	# 0 "" 2
 1351              	#NO_APP
 1352 0800 2334F4F2 		sd	a5,-216(s0)
 224:src/../inc/riscv.hpp **** }
 1353              		.loc 2 224 5 is_stmt 1
 224:src/../inc/riscv.hpp **** }
 1354              		.loc 2 224 12 is_stmt 0
 1355 0804 033584F2 		ld	a0,-216(s0)
GAS LISTING /tmp/ccb4Yeeq.s 			page 40


 1356              	.LBE268:
 1357              	.LBE267:
 300:src/../inc/riscv.hpp ****     printStringS("a1: ");printIntS(r_a1(), 16);printStringS("\t");
 1358              		.loc 2 300 35
 1359 0808 13060000 		li	a2,0
 1360 080c 93050001 		li	a1,16
 1361 0810 1B050500 		sext.w	a0,a0
 1362 0814 97000000 		call	_Z9printIntSiii@plt
 1362      E7800000 
 1363              	.LVL93:
 300:src/../inc/riscv.hpp ****     printStringS("a1: ");printIntS(r_a1(), 16);printStringS("\t");
 1364              		.loc 2 300 48 is_stmt 1
 300:src/../inc/riscv.hpp ****     printStringS("a1: ");printIntS(r_a1(), 16);printStringS("\t");
 1365              		.loc 2 300 60 is_stmt 0
 1366 081c 17050000 		lla	a0,.LC3
 1366      13050500 
 1367 0824 97000000 		call	_Z12printStringSPKc@plt
 1367      E7800000 
 1368              	.LVL94:
 301:src/../inc/riscv.hpp ****     printStringS("a2: ");printIntS(r_a2(), 16);printStringS("\t");
 1369              		.loc 2 301 5 is_stmt 1
 301:src/../inc/riscv.hpp ****     printStringS("a2: ");printIntS(r_a2(), 16);printStringS("\t");
 1370              		.loc 2 301 17 is_stmt 0
 1371 082c 17050000 		lla	a0,.LC11
 1371      13050500 
 1372 0834 97000000 		call	_Z12printStringSPKc@plt
 1372      E7800000 
 1373              	.LVL95:
 301:src/../inc/riscv.hpp ****     printStringS("a2: ");printIntS(r_a2(), 16);printStringS("\t");
 1374              		.loc 2 301 26 is_stmt 1
 1375              	.LBB269:
 1376              	.LBB270:
 232:src/../inc/riscv.hpp ****     __asm__ volatile ("mv %[a1], a1" : [a1] "=r"(a1));
 1377              		.loc 2 232 5
 233:src/../inc/riscv.hpp ****     return a1;
 1378              		.loc 2 233 5
 233:src/../inc/riscv.hpp ****     return a1;
 1379              		.loc 2 233 54 is_stmt 0
 1380              	#APP
 1381              	# 233 "src/../inc/riscv.hpp" 1
 1382              		mv a5, a1
 1383              	# 0 "" 2
 1384              	#NO_APP
 1385 0840 2338F4F2 		sd	a5,-208(s0)
 234:src/../inc/riscv.hpp **** }
 1386              		.loc 2 234 5 is_stmt 1
 234:src/../inc/riscv.hpp **** }
 1387              		.loc 2 234 12 is_stmt 0
 1388 0844 033504F3 		ld	a0,-208(s0)
 1389              	.LBE270:
 1390              	.LBE269:
 301:src/../inc/riscv.hpp ****     printStringS("a2: ");printIntS(r_a2(), 16);printStringS("\t");
 1391              		.loc 2 301 35
 1392 0848 13060000 		li	a2,0
 1393 084c 93050001 		li	a1,16
 1394 0850 1B050500 		sext.w	a0,a0
 1395 0854 97000000 		call	_Z9printIntSiii@plt
GAS LISTING /tmp/ccb4Yeeq.s 			page 41


 1395      E7800000 
 1396              	.LVL96:
 301:src/../inc/riscv.hpp ****     printStringS("a2: ");printIntS(r_a2(), 16);printStringS("\t");
 1397              		.loc 2 301 48 is_stmt 1
 301:src/../inc/riscv.hpp ****     printStringS("a2: ");printIntS(r_a2(), 16);printStringS("\t");
 1398              		.loc 2 301 60 is_stmt 0
 1399 085c 17050000 		lla	a0,.LC3
 1399      13050500 
 1400 0864 97000000 		call	_Z12printStringSPKc@plt
 1400      E7800000 
 1401              	.LVL97:
 302:src/../inc/riscv.hpp ****     printStringS("a3: ");printIntS(r_a3(), 16);printStringS("\t");
 1402              		.loc 2 302 5 is_stmt 1
 302:src/../inc/riscv.hpp ****     printStringS("a3: ");printIntS(r_a3(), 16);printStringS("\t");
 1403              		.loc 2 302 17 is_stmt 0
 1404 086c 17050000 		lla	a0,.LC12
 1404      13050500 
 1405 0874 97000000 		call	_Z12printStringSPKc@plt
 1405      E7800000 
 1406              	.LVL98:
 302:src/../inc/riscv.hpp ****     printStringS("a3: ");printIntS(r_a3(), 16);printStringS("\t");
 1407              		.loc 2 302 26 is_stmt 1
 1408              	.LBB271:
 1409              	.LBB272:
 242:src/../inc/riscv.hpp ****     __asm__ volatile ("mv %[a2], a2" : [a2] "=r"(a2));
 1410              		.loc 2 242 5
 243:src/../inc/riscv.hpp ****     return a2;
 1411              		.loc 2 243 5
 243:src/../inc/riscv.hpp ****     return a2;
 1412              		.loc 2 243 54 is_stmt 0
 1413              	#APP
 1414              	# 243 "src/../inc/riscv.hpp" 1
 1415              		mv a5, a2
 1416              	# 0 "" 2
 1417              	#NO_APP
 1418 0880 233CF4F2 		sd	a5,-200(s0)
 244:src/../inc/riscv.hpp **** }
 1419              		.loc 2 244 5 is_stmt 1
 244:src/../inc/riscv.hpp **** }
 1420              		.loc 2 244 12 is_stmt 0
 1421 0884 033584F3 		ld	a0,-200(s0)
 1422              	.LBE272:
 1423              	.LBE271:
 302:src/../inc/riscv.hpp ****     printStringS("a3: ");printIntS(r_a3(), 16);printStringS("\t");
 1424              		.loc 2 302 35
 1425 0888 13060000 		li	a2,0
 1426 088c 93050001 		li	a1,16
 1427 0890 1B050500 		sext.w	a0,a0
 1428 0894 97000000 		call	_Z9printIntSiii@plt
 1428      E7800000 
 1429              	.LVL99:
 302:src/../inc/riscv.hpp ****     printStringS("a3: ");printIntS(r_a3(), 16);printStringS("\t");
 1430              		.loc 2 302 48 is_stmt 1
 302:src/../inc/riscv.hpp ****     printStringS("a3: ");printIntS(r_a3(), 16);printStringS("\t");
 1431              		.loc 2 302 60 is_stmt 0
 1432 089c 17050000 		lla	a0,.LC3
 1432      13050500 
GAS LISTING /tmp/ccb4Yeeq.s 			page 42


 1433 08a4 97000000 		call	_Z12printStringSPKc@plt
 1433      E7800000 
 1434              	.LVL100:
 303:src/../inc/riscv.hpp ****     printStringS("a4: ");printIntS(r_a4(), 16);printStringS("\n\t\t");
 1435              		.loc 2 303 5 is_stmt 1
 303:src/../inc/riscv.hpp ****     printStringS("a4: ");printIntS(r_a4(), 16);printStringS("\n\t\t");
 1436              		.loc 2 303 17 is_stmt 0
 1437 08ac 17050000 		lla	a0,.LC13
 1437      13050500 
 1438 08b4 97000000 		call	_Z12printStringSPKc@plt
 1438      E7800000 
 1439              	.LVL101:
 303:src/../inc/riscv.hpp ****     printStringS("a4: ");printIntS(r_a4(), 16);printStringS("\n\t\t");
 1440              		.loc 2 303 26 is_stmt 1
 1441              	.LBB273:
 1442              	.LBB274:
 252:src/../inc/riscv.hpp ****     __asm__ volatile ("mv %[a3], a3" : [a3] "=r"(a3));
 1443              		.loc 2 252 5
 253:src/../inc/riscv.hpp ****     return a3;
 1444              		.loc 2 253 5
 253:src/../inc/riscv.hpp ****     return a3;
 1445              		.loc 2 253 54 is_stmt 0
 1446              	#APP
 1447              	# 253 "src/../inc/riscv.hpp" 1
 1448              		mv a5, a3
 1449              	# 0 "" 2
 1450              	#NO_APP
 1451 08c0 2330F4F4 		sd	a5,-192(s0)
 254:src/../inc/riscv.hpp **** }
 1452              		.loc 2 254 5 is_stmt 1
 254:src/../inc/riscv.hpp **** }
 1453              		.loc 2 254 12 is_stmt 0
 1454 08c4 033504F4 		ld	a0,-192(s0)
 1455              	.LBE274:
 1456              	.LBE273:
 303:src/../inc/riscv.hpp ****     printStringS("a4: ");printIntS(r_a4(), 16);printStringS("\n\t\t");
 1457              		.loc 2 303 35
 1458 08c8 13060000 		li	a2,0
 1459 08cc 93050001 		li	a1,16
 1460 08d0 1B050500 		sext.w	a0,a0
 1461 08d4 97000000 		call	_Z9printIntSiii@plt
 1461      E7800000 
 1462              	.LVL102:
 303:src/../inc/riscv.hpp ****     printStringS("a4: ");printIntS(r_a4(), 16);printStringS("\n\t\t");
 1463              		.loc 2 303 48 is_stmt 1
 303:src/../inc/riscv.hpp ****     printStringS("a4: ");printIntS(r_a4(), 16);printStringS("\n\t\t");
 1464              		.loc 2 303 60 is_stmt 0
 1465 08dc 17050000 		lla	a0,.LC3
 1465      13050500 
 1466 08e4 97000000 		call	_Z12printStringSPKc@plt
 1466      E7800000 
 1467              	.LVL103:
 1468              		.loc 2 304 5 is_stmt 1
 1469              		.loc 2 304 17 is_stmt 0
 1470 08ec 17050000 		lla	a0,.LC14
 1470      13050500 
 1471 08f4 97000000 		call	_Z12printStringSPKc@plt
GAS LISTING /tmp/ccb4Yeeq.s 			page 43


 1471      E7800000 
 1472              	.LVL104:
 1473              		.loc 2 304 26 is_stmt 1
 1474              	.LBB275:
 1475              	.LBB276:
 262:src/../inc/riscv.hpp ****     __asm__ volatile ("mv %[a4], a4" : [a4] "=r"(a4));
 1476              		.loc 2 262 5
 263:src/../inc/riscv.hpp ****     return a4;
 1477              		.loc 2 263 5
 263:src/../inc/riscv.hpp ****     return a4;
 1478              		.loc 2 263 54 is_stmt 0
 1479              	#APP
 1480              	# 263 "src/../inc/riscv.hpp" 1
 1481              		mv a5, a4
 1482              	# 0 "" 2
 1483              	#NO_APP
 1484 0900 2334F4F4 		sd	a5,-184(s0)
 264:src/../inc/riscv.hpp **** }
 1485              		.loc 2 264 5 is_stmt 1
 264:src/../inc/riscv.hpp **** }
 1486              		.loc 2 264 12 is_stmt 0
 1487 0904 033584F4 		ld	a0,-184(s0)
 1488              	.LBE276:
 1489              	.LBE275:
 1490              		.loc 2 304 35
 1491 0908 13060000 		li	a2,0
 1492 090c 93050001 		li	a1,16
 1493 0910 1B050500 		sext.w	a0,a0
 1494 0914 97000000 		call	_Z9printIntSiii@plt
 1494      E7800000 
 1495              	.LVL105:
 1496              		.loc 2 304 48 is_stmt 1
 1497              		.loc 2 304 60 is_stmt 0
 1498 091c 17050000 		lla	a0,.LC9
 1498      13050500 
 1499 0924 97000000 		call	_Z12printStringSPKc@plt
 1499      E7800000 
 1500              	.LVL106:
 1501              	.LBE254:
 1502              	.LBE253:
 111:src/Handlers.cpp ****                 return;
 1503              		.loc 1 111 17 is_stmt 1
 1504              	.LBB277:
 1505              	.LBB278:
 272:src/../inc/riscv.hpp ****     __asm__ volatile("li t1, 0x100000");
 1506              		.loc 2 272 5
 272:src/../inc/riscv.hpp ****     __asm__ volatile("li t1, 0x100000");
 1507              		.loc 2 272 38 is_stmt 0
 1508              	#APP
 1509              	# 272 "src/../inc/riscv.hpp" 1
 273:src/../inc/riscv.hpp ****     __asm__ volatile("sw t0, 0(t1) ");
 1510              		li t0, 0x5555
 1511              	# 0 "" 2
 1512              		.loc 2 273 5 is_stmt 1
 273:src/../inc/riscv.hpp ****     __asm__ volatile("sw t0, 0(t1) ");
 1513              		.loc 2 273 40 is_stmt 0
 1514              	# 273 "src/../inc/riscv.hpp" 1
GAS LISTING /tmp/ccb4Yeeq.s 			page 44


 274:src/../inc/riscv.hpp **** }
 1515              		li t1, 0x100000
 1516              	# 0 "" 2
 1517              		.loc 2 274 5 is_stmt 1
 274:src/../inc/riscv.hpp **** }
 1518              		.loc 2 274 38 is_stmt 0
 1519              	# 274 "src/../inc/riscv.hpp" 1
 1520              		sw t0, 0(t1) 
 1521              	# 0 "" 2
 1522              	#NO_APP
 1523              	.LBE278:
 1524              	.LBE277:
 112:src/Handlers.cpp ****             }
 1525              		.loc 1 112 17 is_stmt 1
 1526 093c 6FF0DFB1 		j	.L1
 1527              	.LVL107:
 1528              	.L29:
 1529              	.LBB279:
 1530              	.LBB242:
 281:src/../inc/riscv.hpp ****         Riscv::ms_sstatus(Riscv::SSTATUS_SPP);
 1531              		.loc 2 281 10
 1532 0940 13071000 		li	a4,1
 1533 0944 E394E7AC 		bne	a5,a4,.L30
 282:src/../inc/riscv.hpp **** 
 1534              		.loc 2 282 9
 1535              	.LVL108:
 1536              	.LBB240:
 1537              	.LBB241:
 194:src/../inc/riscv.hpp **** }
 1538              		.loc 2 194 5
 194:src/../inc/riscv.hpp **** }
 1539              		.loc 2 194 68 is_stmt 0
 1540 0948 93070010 		li	a5,256
 1541              	.LVL109:
 1542              	#APP
 1543              	# 194 "src/../inc/riscv.hpp" 1
 195:src/../inc/riscv.hpp **** 
 1544              		csrs sstatus, a5
 1545              	# 0 "" 2
 1546              		.loc 2 195 1
 1547              	#NO_APP
 1548 0950 6FF0DFAB 		j	.L30
 1549              	.LVL110:
 1550              	.L5:
 1551              	.LBE241:
 1552              	.LBE240:
 1553              	.LBE242:
 1554              	.LBE279:
 119:src/Handlers.cpp ****             printStringS("ERROR: handleSyscalls.switch.default: \n");
 1555              		.loc 1 119 9 is_stmt 1
 120:src/Handlers.cpp ****             Riscv::printStats();
 1556              		.loc 1 120 13
 120:src/Handlers.cpp ****             Riscv::printStats();
 1557              		.loc 1 120 25 is_stmt 0
 1558 0954 17050000 		lla	a0,.LC16
 1558      13050500 
 1559 095c 97000000 		call	_Z12printStringSPKc@plt
GAS LISTING /tmp/ccb4Yeeq.s 			page 45


 1559      E7800000 
 1560              	.LVL111:
 121:src/Handlers.cpp **** 
 1561              		.loc 1 121 13 is_stmt 1
 1562              	.LBB280:
 1563              	.LBB281:
 293:src/../inc/riscv.hpp ****     printStringS("scause: ");printIntS(r_scause(), 16);printStringS("\t");
 1564              		.loc 2 293 5
 293:src/../inc/riscv.hpp ****     printStringS("scause: ");printIntS(r_scause(), 16);printStringS("\t");
 1565              		.loc 2 293 17 is_stmt 0
 1566 0964 17050000 		lla	a0,.LC1
 1566      13050500 
 1567 096c 97000000 		call	_Z12printStringSPKc@plt
 1567      E7800000 
 1568              	.LVL112:
 294:src/../inc/riscv.hpp ****     printStringS("sstatus: ");printIntS(r_sstatus(), 16);printStringS("\t");
 1569              		.loc 2 294 5 is_stmt 1
 294:src/../inc/riscv.hpp ****     printStringS("sstatus: ");printIntS(r_sstatus(), 16);printStringS("\t");
 1570              		.loc 2 294 17 is_stmt 0
 1571 0974 17050000 		lla	a0,.LC2
 1571      13050500 
 1572 097c 97000000 		call	_Z12printStringSPKc@plt
 1572      E7800000 
 1573              	.LVL113:
 294:src/../inc/riscv.hpp ****     printStringS("sstatus: ");printIntS(r_sstatus(), 16);printStringS("\t");
 1574              		.loc 2 294 30 is_stmt 1
 1575              	.LBB282:
 1576              	.LBB283:
 124:src/../inc/riscv.hpp ****     __asm__ volatile ("csrr %[scause], scause" : [scause] "=r"(scause));
 1577              		.loc 2 124 5
 125:src/../inc/riscv.hpp ****     return scause;
 1578              		.loc 2 125 5
 125:src/../inc/riscv.hpp ****     return scause;
 1579              		.loc 2 125 72 is_stmt 0
 1580              	#APP
 1581              	# 125 "src/../inc/riscv.hpp" 1
 1582              		csrr a5, scause
 1583              	# 0 "" 2
 1584              	#NO_APP
 1585 0988 2338F4F4 		sd	a5,-176(s0)
 126:src/../inc/riscv.hpp **** }
 1586              		.loc 2 126 5 is_stmt 1
 126:src/../inc/riscv.hpp **** }
 1587              		.loc 2 126 12 is_stmt 0
 1588 098c 033504F5 		ld	a0,-176(s0)
 1589              	.LBE283:
 1590              	.LBE282:
 294:src/../inc/riscv.hpp ****     printStringS("sstatus: ");printIntS(r_sstatus(), 16);printStringS("\t");
 1591              		.loc 2 294 39
 1592 0990 13060000 		li	a2,0
 1593 0994 93050001 		li	a1,16
 1594 0998 1B050500 		sext.w	a0,a0
 1595 099c 97000000 		call	_Z9printIntSiii@plt
 1595      E7800000 
 1596              	.LVL114:
 294:src/../inc/riscv.hpp ****     printStringS("sstatus: ");printIntS(r_sstatus(), 16);printStringS("\t");
 1597              		.loc 2 294 56 is_stmt 1
GAS LISTING /tmp/ccb4Yeeq.s 			page 46


 294:src/../inc/riscv.hpp ****     printStringS("sstatus: ");printIntS(r_sstatus(), 16);printStringS("\t");
 1598              		.loc 2 294 68 is_stmt 0
 1599 09a4 17050000 		lla	a0,.LC3
 1599      13050500 
 1600 09ac 97000000 		call	_Z12printStringSPKc@plt
 1600      E7800000 
 1601              	.LVL115:
 295:src/../inc/riscv.hpp ****     printStringS("sepc: ");printIntS(r_sepc(), 16);printStringS("\t");
 1602              		.loc 2 295 5 is_stmt 1
 295:src/../inc/riscv.hpp ****     printStringS("sepc: ");printIntS(r_sepc(), 16);printStringS("\t");
 1603              		.loc 2 295 17 is_stmt 0
 1604 09b4 17050000 		lla	a0,.LC4
 1604      13050500 
 1605 09bc 97000000 		call	_Z12printStringSPKc@plt
 1605      E7800000 
 1606              	.LVL116:
 295:src/../inc/riscv.hpp ****     printStringS("sepc: ");printIntS(r_sepc(), 16);printStringS("\t");
 1607              		.loc 2 295 31 is_stmt 1
 1608              	.LBB284:
 1609              	.LBB285:
 204:src/../inc/riscv.hpp ****     __asm__ volatile ("csrr %[sstatus], sstatus" : [sstatus] "=r"(sstatus));
 1610              		.loc 2 204 5
 205:src/../inc/riscv.hpp ****     return sstatus;
 1611              		.loc 2 205 5
 205:src/../inc/riscv.hpp ****     return sstatus;
 1612              		.loc 2 205 76 is_stmt 0
 1613              	#APP
 1614              	# 205 "src/../inc/riscv.hpp" 1
 1615              		csrr a5, sstatus
 1616              	# 0 "" 2
 1617              	#NO_APP
 1618 09c8 233CF4F4 		sd	a5,-168(s0)
 206:src/../inc/riscv.hpp **** }
 1619              		.loc 2 206 5 is_stmt 1
 206:src/../inc/riscv.hpp **** }
 1620              		.loc 2 206 12 is_stmt 0
 1621 09cc 033584F5 		ld	a0,-168(s0)
 1622              	.LBE285:
 1623              	.LBE284:
 295:src/../inc/riscv.hpp ****     printStringS("sepc: ");printIntS(r_sepc(), 16);printStringS("\t");
 1624              		.loc 2 295 40
 1625 09d0 13060000 		li	a2,0
 1626 09d4 93050001 		li	a1,16
 1627 09d8 1B050500 		sext.w	a0,a0
 1628 09dc 97000000 		call	_Z9printIntSiii@plt
 1628      E7800000 
 1629              	.LVL117:
 295:src/../inc/riscv.hpp ****     printStringS("sepc: ");printIntS(r_sepc(), 16);printStringS("\t");
 1630              		.loc 2 295 58 is_stmt 1
 295:src/../inc/riscv.hpp ****     printStringS("sepc: ");printIntS(r_sepc(), 16);printStringS("\t");
 1631              		.loc 2 295 70 is_stmt 0
 1632 09e4 17050000 		lla	a0,.LC3
 1632      13050500 
 1633 09ec 97000000 		call	_Z12printStringSPKc@plt
 1633      E7800000 
 1634              	.LVL118:
 296:src/../inc/riscv.hpp ****     printStringS("sip: ");printIntS(r_sip(), 16);printStringS("\t");
GAS LISTING /tmp/ccb4Yeeq.s 			page 47


 1635              		.loc 2 296 5 is_stmt 1
 296:src/../inc/riscv.hpp ****     printStringS("sip: ");printIntS(r_sip(), 16);printStringS("\t");
 1636              		.loc 2 296 17 is_stmt 0
 1637 09f4 17050000 		lla	a0,.LC5
 1637      13050500 
 1638 09fc 97000000 		call	_Z12printStringSPKc@plt
 1638      E7800000 
 1639              	.LVL119:
 296:src/../inc/riscv.hpp ****     printStringS("sip: ");printIntS(r_sip(), 16);printStringS("\t");
 1640              		.loc 2 296 28 is_stmt 1
 1641              	.LBB286:
 1642              	.LBB287:
 136:src/../inc/riscv.hpp ****     __asm__ volatile ("csrr %[sepc], sepc" : [sepc] "=r"(sepc));
 1643              		.loc 2 136 5
 137:src/../inc/riscv.hpp ****     return sepc;
 1644              		.loc 2 137 5
 137:src/../inc/riscv.hpp ****     return sepc;
 1645              		.loc 2 137 64 is_stmt 0
 1646              	#APP
 1647              	# 137 "src/../inc/riscv.hpp" 1
 1648              		csrr a5, sepc
 1649              	# 0 "" 2
 1650              	#NO_APP
 1651 0a08 2330F4F6 		sd	a5,-160(s0)
 138:src/../inc/riscv.hpp **** }
 1652              		.loc 2 138 5 is_stmt 1
 138:src/../inc/riscv.hpp **** }
 1653              		.loc 2 138 12 is_stmt 0
 1654 0a0c 033504F6 		ld	a0,-160(s0)
 1655              	.LBE287:
 1656              	.LBE286:
 296:src/../inc/riscv.hpp ****     printStringS("sip: ");printIntS(r_sip(), 16);printStringS("\t");
 1657              		.loc 2 296 37
 1658 0a10 13060000 		li	a2,0
 1659 0a14 93050001 		li	a1,16
 1660 0a18 1B050500 		sext.w	a0,a0
 1661 0a1c 97000000 		call	_Z9printIntSiii@plt
 1661      E7800000 
 1662              	.LVL120:
 296:src/../inc/riscv.hpp ****     printStringS("sip: ");printIntS(r_sip(), 16);printStringS("\t");
 1663              		.loc 2 296 52 is_stmt 1
 296:src/../inc/riscv.hpp ****     printStringS("sip: ");printIntS(r_sip(), 16);printStringS("\t");
 1664              		.loc 2 296 64 is_stmt 0
 1665 0a24 17050000 		lla	a0,.LC3
 1665      13050500 
 1666 0a2c 97000000 		call	_Z12printStringSPKc@plt
 1666      E7800000 
 1667              	.LVL121:
 297:src/../inc/riscv.hpp ****     printStringS("stval: ");printIntS(r_stval(), 16);printStringS("\t");
 1668              		.loc 2 297 5 is_stmt 1
 297:src/../inc/riscv.hpp ****     printStringS("stval: ");printIntS(r_stval(), 16);printStringS("\t");
 1669              		.loc 2 297 17 is_stmt 0
 1670 0a34 17050000 		lla	a0,.LC6
 1670      13050500 
 1671 0a3c 97000000 		call	_Z12printStringSPKc@plt
 1671      E7800000 
 1672              	.LVL122:
GAS LISTING /tmp/ccb4Yeeq.s 			page 48


 297:src/../inc/riscv.hpp ****     printStringS("stval: ");printIntS(r_stval(), 16);printStringS("\t");
 1673              		.loc 2 297 27 is_stmt 1
 1674              	.LBB288:
 1675              	.LBB289:
 182:src/../inc/riscv.hpp ****     __asm__ volatile ("csrr %[sip], sip" : [sip] "=r"(sip));
 1676              		.loc 2 182 5
 183:src/../inc/riscv.hpp ****     return sip;
 1677              		.loc 2 183 5
 183:src/../inc/riscv.hpp ****     return sip;
 1678              		.loc 2 183 60 is_stmt 0
 1679              	#APP
 1680              	# 183 "src/../inc/riscv.hpp" 1
 1681              		csrr a5, sip
 1682              	# 0 "" 2
 1683              	#NO_APP
 1684 0a48 2334F4F6 		sd	a5,-152(s0)
 184:src/../inc/riscv.hpp **** }
 1685              		.loc 2 184 5 is_stmt 1
 184:src/../inc/riscv.hpp **** }
 1686              		.loc 2 184 12 is_stmt 0
 1687 0a4c 033584F6 		ld	a0,-152(s0)
 1688              	.LBE289:
 1689              	.LBE288:
 297:src/../inc/riscv.hpp ****     printStringS("stval: ");printIntS(r_stval(), 16);printStringS("\t");
 1690              		.loc 2 297 36
 1691 0a50 13060000 		li	a2,0
 1692 0a54 93050001 		li	a1,16
 1693 0a58 1B050500 		sext.w	a0,a0
 1694 0a5c 97000000 		call	_Z9printIntSiii@plt
 1694      E7800000 
 1695              	.LVL123:
 297:src/../inc/riscv.hpp ****     printStringS("stval: ");printIntS(r_stval(), 16);printStringS("\t");
 1696              		.loc 2 297 50 is_stmt 1
 297:src/../inc/riscv.hpp ****     printStringS("stval: ");printIntS(r_stval(), 16);printStringS("\t");
 1697              		.loc 2 297 62 is_stmt 0
 1698 0a64 17050000 		lla	a0,.LC3
 1698      13050500 
 1699 0a6c 97000000 		call	_Z12printStringSPKc@plt
 1699      E7800000 
 1700              	.LVL124:
 298:src/../inc/riscv.hpp ****     printStringS("stvec: ");printIntS(r_stvec(), 16);printStringS("\n\t\t");
 1701              		.loc 2 298 5 is_stmt 1
 298:src/../inc/riscv.hpp ****     printStringS("stvec: ");printIntS(r_stvec(), 16);printStringS("\n\t\t");
 1702              		.loc 2 298 17 is_stmt 0
 1703 0a74 17050000 		lla	a0,.LC7
 1703      13050500 
 1704 0a7c 97000000 		call	_Z12printStringSPKc@plt
 1704      E7800000 
 1705              	.LVL125:
 298:src/../inc/riscv.hpp ****     printStringS("stvec: ");printIntS(r_stvec(), 16);printStringS("\n\t\t");
 1706              		.loc 2 298 29 is_stmt 1
 1707              	.LBB290:
 1708              	.LBB291:
 160:src/../inc/riscv.hpp ****     __asm__ volatile ("csrr %[stval], stval" : [stval] "=r"(stval));
 1709              		.loc 2 160 5
 161:src/../inc/riscv.hpp ****     return stval;
 1710              		.loc 2 161 5
GAS LISTING /tmp/ccb4Yeeq.s 			page 49


 161:src/../inc/riscv.hpp ****     return stval;
 1711              		.loc 2 161 68 is_stmt 0
 1712              	#APP
 1713              	# 161 "src/../inc/riscv.hpp" 1
 1714              		csrr a5, stval
 1715              	# 0 "" 2
 1716              	#NO_APP
 1717 0a88 2338F4F6 		sd	a5,-144(s0)
 162:src/../inc/riscv.hpp **** }
 1718              		.loc 2 162 5 is_stmt 1
 162:src/../inc/riscv.hpp **** }
 1719              		.loc 2 162 12 is_stmt 0
 1720 0a8c 033504F7 		ld	a0,-144(s0)
 1721              	.LBE291:
 1722              	.LBE290:
 298:src/../inc/riscv.hpp ****     printStringS("stvec: ");printIntS(r_stvec(), 16);printStringS("\n\t\t");
 1723              		.loc 2 298 38
 1724 0a90 13060000 		li	a2,0
 1725 0a94 93050001 		li	a1,16
 1726 0a98 1B050500 		sext.w	a0,a0
 1727 0a9c 97000000 		call	_Z9printIntSiii@plt
 1727      E7800000 
 1728              	.LVL126:
 298:src/../inc/riscv.hpp ****     printStringS("stvec: ");printIntS(r_stvec(), 16);printStringS("\n\t\t");
 1729              		.loc 2 298 54 is_stmt 1
 298:src/../inc/riscv.hpp ****     printStringS("stvec: ");printIntS(r_stvec(), 16);printStringS("\n\t\t");
 1730              		.loc 2 298 66 is_stmt 0
 1731 0aa4 17050000 		lla	a0,.LC3
 1731      13050500 
 1732 0aac 97000000 		call	_Z12printStringSPKc@plt
 1732      E7800000 
 1733              	.LVL127:
 299:src/../inc/riscv.hpp ****     printStringS("a0: ");printIntS(r_a0(), 16);printStringS("\t");
 1734              		.loc 2 299 5 is_stmt 1
 299:src/../inc/riscv.hpp ****     printStringS("a0: ");printIntS(r_a0(), 16);printStringS("\t");
 1735              		.loc 2 299 17 is_stmt 0
 1736 0ab4 17050000 		lla	a0,.LC8
 1736      13050500 
 1737 0abc 97000000 		call	_Z12printStringSPKc@plt
 1737      E7800000 
 1738              	.LVL128:
 299:src/../inc/riscv.hpp ****     printStringS("a0: ");printIntS(r_a0(), 16);printStringS("\t");
 1739              		.loc 2 299 29 is_stmt 1
 1740              	.LBB292:
 1741              	.LBB293:
 148:src/../inc/riscv.hpp ****     __asm__ volatile ("csrr %[stvec], stvec" : [stvec] "=r"(stvec));
 1742              		.loc 2 148 5
 149:src/../inc/riscv.hpp ****     return stvec;
 1743              		.loc 2 149 5
 149:src/../inc/riscv.hpp ****     return stvec;
 1744              		.loc 2 149 68 is_stmt 0
 1745              	#APP
 1746              	# 149 "src/../inc/riscv.hpp" 1
 1747              		csrr a5, stvec
 1748              	# 0 "" 2
 1749              	#NO_APP
 1750 0ac8 233CF4F6 		sd	a5,-136(s0)
GAS LISTING /tmp/ccb4Yeeq.s 			page 50


 150:src/../inc/riscv.hpp **** }
 1751              		.loc 2 150 5 is_stmt 1
 150:src/../inc/riscv.hpp **** }
 1752              		.loc 2 150 12 is_stmt 0
 1753 0acc 033584F7 		ld	a0,-136(s0)
 1754              	.LBE293:
 1755              	.LBE292:
 299:src/../inc/riscv.hpp ****     printStringS("a0: ");printIntS(r_a0(), 16);printStringS("\t");
 1756              		.loc 2 299 38
 1757 0ad0 13060000 		li	a2,0
 1758 0ad4 93050001 		li	a1,16
 1759 0ad8 1B050500 		sext.w	a0,a0
 1760 0adc 97000000 		call	_Z9printIntSiii@plt
 1760      E7800000 
 1761              	.LVL129:
 299:src/../inc/riscv.hpp ****     printStringS("a0: ");printIntS(r_a0(), 16);printStringS("\t");
 1762              		.loc 2 299 54 is_stmt 1
 299:src/../inc/riscv.hpp ****     printStringS("a0: ");printIntS(r_a0(), 16);printStringS("\t");
 1763              		.loc 2 299 66 is_stmt 0
 1764 0ae4 17050000 		lla	a0,.LC9
 1764      13050500 
 1765 0aec 97000000 		call	_Z12printStringSPKc@plt
 1765      E7800000 
 1766              	.LVL130:
 300:src/../inc/riscv.hpp ****     printStringS("a1: ");printIntS(r_a1(), 16);printStringS("\t");
 1767              		.loc 2 300 5 is_stmt 1
 300:src/../inc/riscv.hpp ****     printStringS("a1: ");printIntS(r_a1(), 16);printStringS("\t");
 1768              		.loc 2 300 17 is_stmt 0
 1769 0af4 17050000 		lla	a0,.LC10
 1769      13050500 
 1770 0afc 97000000 		call	_Z12printStringSPKc@plt
 1770      E7800000 
 1771              	.LVL131:
 300:src/../inc/riscv.hpp ****     printStringS("a1: ");printIntS(r_a1(), 16);printStringS("\t");
 1772              		.loc 2 300 26 is_stmt 1
 1773              	.LBB294:
 1774              	.LBB295:
 222:src/../inc/riscv.hpp ****     __asm__ volatile ("mv %[a0], a0" : [a0] "=r"(a0));
 1775              		.loc 2 222 5
 223:src/../inc/riscv.hpp ****     return a0;
 1776              		.loc 2 223 5
 223:src/../inc/riscv.hpp ****     return a0;
 1777              		.loc 2 223 54 is_stmt 0
 1778              	#APP
 1779              	# 223 "src/../inc/riscv.hpp" 1
 1780              		mv a5, a0
 1781              	# 0 "" 2
 1782              	#NO_APP
 1783 0b08 2330F4F8 		sd	a5,-128(s0)
 224:src/../inc/riscv.hpp **** }
 1784              		.loc 2 224 5 is_stmt 1
 224:src/../inc/riscv.hpp **** }
 1785              		.loc 2 224 12 is_stmt 0
 1786 0b0c 033504F8 		ld	a0,-128(s0)
 1787              	.LBE295:
 1788              	.LBE294:
 300:src/../inc/riscv.hpp ****     printStringS("a1: ");printIntS(r_a1(), 16);printStringS("\t");
GAS LISTING /tmp/ccb4Yeeq.s 			page 51


 1789              		.loc 2 300 35
 1790 0b10 13060000 		li	a2,0
 1791 0b14 93050001 		li	a1,16
 1792 0b18 1B050500 		sext.w	a0,a0
 1793 0b1c 97000000 		call	_Z9printIntSiii@plt
 1793      E7800000 
 1794              	.LVL132:
 300:src/../inc/riscv.hpp ****     printStringS("a1: ");printIntS(r_a1(), 16);printStringS("\t");
 1795              		.loc 2 300 48 is_stmt 1
 300:src/../inc/riscv.hpp ****     printStringS("a1: ");printIntS(r_a1(), 16);printStringS("\t");
 1796              		.loc 2 300 60 is_stmt 0
 1797 0b24 17050000 		lla	a0,.LC3
 1797      13050500 
 1798 0b2c 97000000 		call	_Z12printStringSPKc@plt
 1798      E7800000 
 1799              	.LVL133:
 301:src/../inc/riscv.hpp ****     printStringS("a2: ");printIntS(r_a2(), 16);printStringS("\t");
 1800              		.loc 2 301 5 is_stmt 1
 301:src/../inc/riscv.hpp ****     printStringS("a2: ");printIntS(r_a2(), 16);printStringS("\t");
 1801              		.loc 2 301 17 is_stmt 0
 1802 0b34 17050000 		lla	a0,.LC11
 1802      13050500 
 1803 0b3c 97000000 		call	_Z12printStringSPKc@plt
 1803      E7800000 
 1804              	.LVL134:
 301:src/../inc/riscv.hpp ****     printStringS("a2: ");printIntS(r_a2(), 16);printStringS("\t");
 1805              		.loc 2 301 26 is_stmt 1
 1806              	.LBB296:
 1807              	.LBB297:
 232:src/../inc/riscv.hpp ****     __asm__ volatile ("mv %[a1], a1" : [a1] "=r"(a1));
 1808              		.loc 2 232 5
 233:src/../inc/riscv.hpp ****     return a1;
 1809              		.loc 2 233 5
 233:src/../inc/riscv.hpp ****     return a1;
 1810              		.loc 2 233 54 is_stmt 0
 1811              	#APP
 1812              	# 233 "src/../inc/riscv.hpp" 1
 1813              		mv a5, a1
 1814              	# 0 "" 2
 1815              	#NO_APP
 1816 0b48 2334F4F8 		sd	a5,-120(s0)
 234:src/../inc/riscv.hpp **** }
 1817              		.loc 2 234 5 is_stmt 1
 234:src/../inc/riscv.hpp **** }
 1818              		.loc 2 234 12 is_stmt 0
 1819 0b4c 033584F8 		ld	a0,-120(s0)
 1820              	.LBE297:
 1821              	.LBE296:
 301:src/../inc/riscv.hpp ****     printStringS("a2: ");printIntS(r_a2(), 16);printStringS("\t");
 1822              		.loc 2 301 35
 1823 0b50 13060000 		li	a2,0
 1824 0b54 93050001 		li	a1,16
 1825 0b58 1B050500 		sext.w	a0,a0
 1826 0b5c 97000000 		call	_Z9printIntSiii@plt
 1826      E7800000 
 1827              	.LVL135:
 301:src/../inc/riscv.hpp ****     printStringS("a2: ");printIntS(r_a2(), 16);printStringS("\t");
GAS LISTING /tmp/ccb4Yeeq.s 			page 52


 1828              		.loc 2 301 48 is_stmt 1
 301:src/../inc/riscv.hpp ****     printStringS("a2: ");printIntS(r_a2(), 16);printStringS("\t");
 1829              		.loc 2 301 60 is_stmt 0
 1830 0b64 17050000 		lla	a0,.LC3
 1830      13050500 
 1831 0b6c 97000000 		call	_Z12printStringSPKc@plt
 1831      E7800000 
 1832              	.LVL136:
 302:src/../inc/riscv.hpp ****     printStringS("a3: ");printIntS(r_a3(), 16);printStringS("\t");
 1833              		.loc 2 302 5 is_stmt 1
 302:src/../inc/riscv.hpp ****     printStringS("a3: ");printIntS(r_a3(), 16);printStringS("\t");
 1834              		.loc 2 302 17 is_stmt 0
 1835 0b74 17050000 		lla	a0,.LC12
 1835      13050500 
 1836 0b7c 97000000 		call	_Z12printStringSPKc@plt
 1836      E7800000 
 1837              	.LVL137:
 302:src/../inc/riscv.hpp ****     printStringS("a3: ");printIntS(r_a3(), 16);printStringS("\t");
 1838              		.loc 2 302 26 is_stmt 1
 1839              	.LBB298:
 1840              	.LBB299:
 242:src/../inc/riscv.hpp ****     __asm__ volatile ("mv %[a2], a2" : [a2] "=r"(a2));
 1841              		.loc 2 242 5
 243:src/../inc/riscv.hpp ****     return a2;
 1842              		.loc 2 243 5
 243:src/../inc/riscv.hpp ****     return a2;
 1843              		.loc 2 243 54 is_stmt 0
 1844              	#APP
 1845              	# 243 "src/../inc/riscv.hpp" 1
 1846              		mv a5, a2
 1847              	# 0 "" 2
 1848              	#NO_APP
 1849 0b88 2338F4F8 		sd	a5,-112(s0)
 244:src/../inc/riscv.hpp **** }
 1850              		.loc 2 244 5 is_stmt 1
 244:src/../inc/riscv.hpp **** }
 1851              		.loc 2 244 12 is_stmt 0
 1852 0b8c 033504F9 		ld	a0,-112(s0)
 1853              	.LBE299:
 1854              	.LBE298:
 302:src/../inc/riscv.hpp ****     printStringS("a3: ");printIntS(r_a3(), 16);printStringS("\t");
 1855              		.loc 2 302 35
 1856 0b90 13060000 		li	a2,0
 1857 0b94 93050001 		li	a1,16
 1858 0b98 1B050500 		sext.w	a0,a0
 1859 0b9c 97000000 		call	_Z9printIntSiii@plt
 1859      E7800000 
 1860              	.LVL138:
 302:src/../inc/riscv.hpp ****     printStringS("a3: ");printIntS(r_a3(), 16);printStringS("\t");
 1861              		.loc 2 302 48 is_stmt 1
 302:src/../inc/riscv.hpp ****     printStringS("a3: ");printIntS(r_a3(), 16);printStringS("\t");
 1862              		.loc 2 302 60 is_stmt 0
 1863 0ba4 17050000 		lla	a0,.LC3
 1863      13050500 
 1864 0bac 97000000 		call	_Z12printStringSPKc@plt
 1864      E7800000 
 1865              	.LVL139:
GAS LISTING /tmp/ccb4Yeeq.s 			page 53


 303:src/../inc/riscv.hpp ****     printStringS("a4: ");printIntS(r_a4(), 16);printStringS("\n\t\t");
 1866              		.loc 2 303 5 is_stmt 1
 303:src/../inc/riscv.hpp ****     printStringS("a4: ");printIntS(r_a4(), 16);printStringS("\n\t\t");
 1867              		.loc 2 303 17 is_stmt 0
 1868 0bb4 17050000 		lla	a0,.LC13
 1868      13050500 
 1869 0bbc 97000000 		call	_Z12printStringSPKc@plt
 1869      E7800000 
 1870              	.LVL140:
 303:src/../inc/riscv.hpp ****     printStringS("a4: ");printIntS(r_a4(), 16);printStringS("\n\t\t");
 1871              		.loc 2 303 26 is_stmt 1
 1872              	.LBB300:
 1873              	.LBB301:
 252:src/../inc/riscv.hpp ****     __asm__ volatile ("mv %[a3], a3" : [a3] "=r"(a3));
 1874              		.loc 2 252 5
 253:src/../inc/riscv.hpp ****     return a3;
 1875              		.loc 2 253 5
 253:src/../inc/riscv.hpp ****     return a3;
 1876              		.loc 2 253 54 is_stmt 0
 1877              	#APP
 1878              	# 253 "src/../inc/riscv.hpp" 1
 1879              		mv a5, a3
 1880              	# 0 "" 2
 1881              	#NO_APP
 1882 0bc8 233CF4F8 		sd	a5,-104(s0)
 254:src/../inc/riscv.hpp **** }
 1883              		.loc 2 254 5 is_stmt 1
 254:src/../inc/riscv.hpp **** }
 1884              		.loc 2 254 12 is_stmt 0
 1885 0bcc 033584F9 		ld	a0,-104(s0)
 1886              	.LBE301:
 1887              	.LBE300:
 303:src/../inc/riscv.hpp ****     printStringS("a4: ");printIntS(r_a4(), 16);printStringS("\n\t\t");
 1888              		.loc 2 303 35
 1889 0bd0 13060000 		li	a2,0
 1890 0bd4 93050001 		li	a1,16
 1891 0bd8 1B050500 		sext.w	a0,a0
 1892 0bdc 97000000 		call	_Z9printIntSiii@plt
 1892      E7800000 
 1893              	.LVL141:
 303:src/../inc/riscv.hpp ****     printStringS("a4: ");printIntS(r_a4(), 16);printStringS("\n\t\t");
 1894              		.loc 2 303 48 is_stmt 1
 303:src/../inc/riscv.hpp ****     printStringS("a4: ");printIntS(r_a4(), 16);printStringS("\n\t\t");
 1895              		.loc 2 303 60 is_stmt 0
 1896 0be4 17050000 		lla	a0,.LC3
 1896      13050500 
 1897 0bec 97000000 		call	_Z12printStringSPKc@plt
 1897      E7800000 
 1898              	.LVL142:
 1899              		.loc 2 304 5 is_stmt 1
 1900              		.loc 2 304 17 is_stmt 0
 1901 0bf4 17050000 		lla	a0,.LC14
 1901      13050500 
 1902 0bfc 97000000 		call	_Z12printStringSPKc@plt
 1902      E7800000 
 1903              	.LVL143:
 1904              		.loc 2 304 26 is_stmt 1
GAS LISTING /tmp/ccb4Yeeq.s 			page 54


 1905              	.LBB302:
 1906              	.LBB303:
 262:src/../inc/riscv.hpp ****     __asm__ volatile ("mv %[a4], a4" : [a4] "=r"(a4));
 1907              		.loc 2 262 5
 263:src/../inc/riscv.hpp ****     return a4;
 1908              		.loc 2 263 5
 263:src/../inc/riscv.hpp ****     return a4;
 1909              		.loc 2 263 54 is_stmt 0
 1910              	#APP
 1911              	# 263 "src/../inc/riscv.hpp" 1
 1912              		mv a5, a4
 1913              	# 0 "" 2
 1914              	#NO_APP
 1915 0c08 2330F4FA 		sd	a5,-96(s0)
 264:src/../inc/riscv.hpp **** }
 1916              		.loc 2 264 5 is_stmt 1
 264:src/../inc/riscv.hpp **** }
 1917              		.loc 2 264 12 is_stmt 0
 1918 0c0c 033504FA 		ld	a0,-96(s0)
 1919              	.LBE303:
 1920              	.LBE302:
 1921              		.loc 2 304 35
 1922 0c10 13060000 		li	a2,0
 1923 0c14 93050001 		li	a1,16
 1924 0c18 1B050500 		sext.w	a0,a0
 1925 0c1c 97000000 		call	_Z9printIntSiii@plt
 1925      E7800000 
 1926              	.LVL144:
 1927              		.loc 2 304 48 is_stmt 1
 1928              		.loc 2 304 60 is_stmt 0
 1929 0c24 17050000 		lla	a0,.LC9
 1929      13050500 
 1930 0c2c 97000000 		call	_Z12printStringSPKc@plt
 1930      E7800000 
 1931              	.LVL145:
 1932              	.LBE281:
 1933              	.LBE280:
 123:src/Handlers.cpp ****             return;
 1934              		.loc 1 123 13 is_stmt 1
 123:src/Handlers.cpp ****             return;
 1935              		.loc 1 123 17 is_stmt 0
 1936 0c34 233004FC 		sd	zero,-64(s0)
 124:src/Handlers.cpp ****         }
 1937              		.loc 1 124 13 is_stmt 1
 1938 0c38 6FF01F82 		j	.L1
 1939              		.cfi_endproc
 1940              	.LFE84:
 1942              		.align	2
 1943              		.globl	_ZN8Handlers11handleTimerEv
 1945              	_ZN8Handlers11handleTimerEv:
 1946              	.LFB85:
 133:src/Handlers.cpp **** 
 134:src/Handlers.cpp **** int Handlers::handleTimer() {
 1947              		.loc 1 134 29
 1948              		.cfi_startproc
 1949 0c3c 130101FB 		addi	sp,sp,-80
 1950              		.cfi_def_cfa_offset 80
GAS LISTING /tmp/ccb4Yeeq.s 			page 55


 1951 0c40 23341104 		sd	ra,72(sp)
 1952 0c44 23308104 		sd	s0,64(sp)
 1953 0c48 233C9102 		sd	s1,56(sp)
 1954              		.cfi_offset 1, -8
 1955              		.cfi_offset 8, -16
 1956              		.cfi_offset 9, -24
 1957 0c4c 13040105 		addi	s0,sp,80
 1958              		.cfi_def_cfa 8, 0
 135:src/Handlers.cpp ****     uint64 volatile cause = Riscv::r_scause();
 1959              		.loc 1 135 5
 1960              	.LBB304:
 1961              	.LBB305:
 124:src/../inc/riscv.hpp ****     __asm__ volatile ("csrr %[scause], scause" : [scause] "=r"(scause));
 1962              		.loc 2 124 5
 125:src/../inc/riscv.hpp ****     return scause;
 1963              		.loc 2 125 5
 125:src/../inc/riscv.hpp ****     return scause;
 1964              		.loc 2 125 72 is_stmt 0
 1965              	#APP
 1966              	# 125 "src/../inc/riscv.hpp" 1
 1967              		csrr a5, scause
 1968              	# 0 "" 2
 1969              	#NO_APP
 1970 0c54 2330F4FC 		sd	a5,-64(s0)
 126:src/../inc/riscv.hpp **** }
 1971              		.loc 2 126 5 is_stmt 1
 126:src/../inc/riscv.hpp **** }
 1972              		.loc 2 126 12 is_stmt 0
 1973 0c58 833704FC 		ld	a5,-64(s0)
 1974              	.LBE305:
 1975              	.LBE304:
 1976              		.loc 1 135 45
 1977 0c5c 233CF4FC 		sd	a5,-40(s0)
 136:src/Handlers.cpp **** 
 137:src/Handlers.cpp ****     if(cause == 0x8000000000000001UL){ /// TIMER
 1978              		.loc 1 137 5 is_stmt 1
 1979              	.LBB306:
 1980              		.loc 1 137 14 is_stmt 0
 1981 0c60 033784FD 		ld	a4,-40(s0)
 1982              		.loc 1 137 5
 1983 0c64 9307F0FF 		li	a5,-1
 1984 0c68 9397F703 		slli	a5,a5,63
 1985 0c6c 93871700 		addi	a5,a5,1
 1986 0c70 630EF700 		beq	a4,a5,.L39
 1987              	.LBE306:
 138:src/Handlers.cpp ****         // interrupt: yes, cause code: supervisor software interrupt (timer)
 139:src/Handlers.cpp **** 
 140:src/Handlers.cpp ****         Riscv::mc_sip(Riscv::SIP_SSIE);
 141:src/Handlers.cpp ****         _thread::timeSliceCounter++;
 142:src/Handlers.cpp **** 
 143:src/Handlers.cpp ****         _thread::timedWaitingHandler(); // timed waiting on semaphores
 144:src/Handlers.cpp ****         _thread::timeSleepHandler(); // time_sleep wake up needed threads
 145:src/Handlers.cpp **** 
 146:src/Handlers.cpp ****         if (_thread::timeSliceCounter >= _thread::running->getTimeSlice()){ // if time is up
 147:src/Handlers.cpp **** 
 148:src/Handlers.cpp ****             /// on old thread stack save sepc and sstatus
 149:src/Handlers.cpp ****             uint64 volatile sepc = Riscv::r_sepc();
GAS LISTING /tmp/ccb4Yeeq.s 			page 56


 150:src/Handlers.cpp ****             uint64 volatile sstatus = Riscv::r_sstatus();
 151:src/Handlers.cpp ****             /// reset time
 152:src/Handlers.cpp ****             _thread::timeSliceCounter = 0;
 153:src/Handlers.cpp ****             /// change context
 154:src/Handlers.cpp ****             _thread::dispatch();
 155:src/Handlers.cpp ****             /// from new thread stack restore sstatus and sepc
 156:src/Handlers.cpp ****             Riscv::w_sstatus(sstatus);
 157:src/Handlers.cpp ****             Riscv::w_sepc(sepc);
 158:src/Handlers.cpp **** 
 159:src/Handlers.cpp ****         }
 160:src/Handlers.cpp **** 
 161:src/Handlers.cpp **** 
 162:src/Handlers.cpp ****         return 1;
 163:src/Handlers.cpp ****     }
 164:src/Handlers.cpp **** 
 165:src/Handlers.cpp ****     return 0;
 1988              		.loc 1 165 12
 1989 0c74 13050000 		li	a0,0
 1990              	.L35:
 166:src/Handlers.cpp **** }
 1991              		.loc 1 166 1
 1992 0c78 83308104 		ld	ra,72(sp)
 1993              		.cfi_remember_state
 1994              		.cfi_restore 1
 1995 0c7c 03340104 		ld	s0,64(sp)
 1996              		.cfi_restore 8
 1997              		.cfi_def_cfa 2, 80
 1998 0c80 83348103 		ld	s1,56(sp)
 1999              		.cfi_restore 9
 2000 0c84 13010105 		addi	sp,sp,80
 2001              		.cfi_def_cfa_offset 0
 2002 0c88 67800000 		jr	ra
 2003              	.L39:
 2004              		.cfi_restore_state
 2005              	.LBB323:
 2006              	.LBB307:
 140:src/Handlers.cpp ****         _thread::timeSliceCounter++;
 2007              		.loc 1 140 9 is_stmt 1
 2008              	.LVL146:
 2009              	.LBB308:
 2010              	.LBB309:
 177:src/../inc/riscv.hpp **** }
 2011              		.loc 2 177 5
 177:src/../inc/riscv.hpp **** }
 2012              		.loc 2 177 64 is_stmt 0
 2013 0c8c 93072000 		li	a5,2
 2014              	#APP
 2015              	# 177 "src/../inc/riscv.hpp" 1
 2016              		csrc sip, a5
 2017              	# 0 "" 2
 2018              	.LVL147:
 2019              	#NO_APP
 2020              	.LBE309:
 2021              	.LBE308:
 141:src/Handlers.cpp **** 
 2022              		.loc 1 141 9 is_stmt 1
 141:src/Handlers.cpp **** 
GAS LISTING /tmp/ccb4Yeeq.s 			page 57


 2023              		.loc 1 141 34 is_stmt 0
 2024 0c94 97040000 		la	s1,_ZN7_thread16timeSliceCounterE
 2024      83B40400 
 2025 0c9c 83B70400 		ld	a5,0(s1)
 2026 0ca0 93871700 		addi	a5,a5,1
 2027 0ca4 23B0F400 		sd	a5,0(s1)
 143:src/Handlers.cpp ****         _thread::timeSleepHandler(); // time_sleep wake up needed threads
 2028              		.loc 1 143 9 is_stmt 1
 143:src/Handlers.cpp ****         _thread::timeSleepHandler(); // time_sleep wake up needed threads
 2029              		.loc 1 143 37 is_stmt 0
 2030 0ca8 97000000 		call	_ZN7_thread19timedWaitingHandlerEv@plt
 2030      E7800000 
 2031              	.LVL148:
 144:src/Handlers.cpp **** 
 2032              		.loc 1 144 9 is_stmt 1
 144:src/Handlers.cpp **** 
 2033              		.loc 1 144 34 is_stmt 0
 2034 0cb0 97000000 		call	_ZN7_thread16timeSleepHandlerEv@plt
 2034      E7800000 
 2035              	.LVL149:
 146:src/Handlers.cpp **** 
 2036              		.loc 1 146 9 is_stmt 1
 2037              	.LBB310:
 146:src/Handlers.cpp **** 
 2038              		.loc 1 146 72 is_stmt 0
 2039 0cb8 97070000 		la	a5,_ZN7_thread7runningE
 2039      83B70700 
 2040 0cc0 83B70700 		ld	a5,0(a5)
 2041              	.LVL150:
 2042              	.LBB311:
 2043              	.LBB312:
 2044              		.file 3 "src/../inc/_thread.hpp"
   1:src/../inc/_thread.hpp **** //
   2:src/../inc/_thread.hpp **** // Created by os on 5/4/24.
   3:src/../inc/_thread.hpp **** //
   4:src/../inc/_thread.hpp **** 
   5:src/../inc/_thread.hpp **** #ifndef PROJECT_BASE__THREAD_HPP
   6:src/../inc/_thread.hpp **** #define PROJECT_BASE__THREAD_HPP
   7:src/../inc/_thread.hpp **** 
   8:src/../inc/_thread.hpp **** #include "../lib/hw.h"
   9:src/../inc/_thread.hpp **** #include "Scheduler.hpp"
  10:src/../inc/_thread.hpp **** #include "../inc/MemoryAllocator.hpp"
  11:src/../inc/_thread.hpp **** #include "../inc/_sem.hpp"
  12:src/../inc/_thread.hpp **** #include "../inc/List_sorted.hpp"
  13:src/../inc/_thread.hpp **** 
  14:src/../inc/_thread.hpp **** 
  15:src/../inc/_thread.hpp **** class _thread {
  16:src/../inc/_thread.hpp **** public:
  17:src/../inc/_thread.hpp ****     /// operators for making objects
  18:src/../inc/_thread.hpp ****     void *operator new(size_t n){ return MemoryAllocator::instance().malloc(n); }
  19:src/../inc/_thread.hpp ****     void *operator new[](size_t n){ return MemoryAllocator::instance().malloc(n); }
  20:src/../inc/_thread.hpp ****     void operator delete(void *p) noexcept{ MemoryAllocator::instance().free(p); }
  21:src/../inc/_thread.hpp ****     void operator delete[](void *p) noexcept{ MemoryAllocator::instance().free(p); }
  22:src/../inc/_thread.hpp **** 
  23:src/../inc/_thread.hpp ****     static _thread* putcThr;
  24:src/../inc/_thread.hpp ****     static _thread* mainThread;
  25:src/../inc/_thread.hpp ****     ///fields
GAS LISTING /tmp/ccb4Yeeq.s 			page 58


  26:src/../inc/_thread.hpp ****     using Body = void(*)(void *);
  27:src/../inc/_thread.hpp ****     static _thread* running;
  28:src/../inc/_thread.hpp ****     ///
  29:src/../inc/_thread.hpp ****     static bool schedulerEmpty();
  30:src/../inc/_thread.hpp ****     static bool schedulerOnlyMainThread();
  31:src/../inc/_thread.hpp ****     static bool hasSleepingThreads() { return sleeping.peekFirst() != nullptr; };
  32:src/../inc/_thread.hpp **** 
  33:src/../inc/_thread.hpp ****     /// getters and setters
  34:src/../inc/_thread.hpp ****     enum State{RUNNING, READY, EXITED, FINISHED, BLOCKED, SLEEPING};
  35:src/../inc/_thread.hpp **** 
  36:src/../inc/_thread.hpp ****     void *getArg() const { return arg; }
  37:src/../inc/_thread.hpp ****     uint64 getTimeSlice() const { return timeSlice; }
 2045              		.loc 3 37 35 is_stmt 1
 2046              		.loc 3 37 42 is_stmt 0
 2047 0cc4 83B70703 		ld	a5,48(a5)
 2048              	.LVL151:
 2049              	.LBE312:
 2050              	.LBE311:
 146:src/Handlers.cpp **** 
 2051              		.loc 1 146 39
 2052 0cc8 03B70400 		ld	a4,0(s1)
 146:src/Handlers.cpp **** 
 2053              		.loc 1 146 9
 2054 0ccc 6376F700 		bgeu	a4,a5,.L40
 2055              	.L36:
 2056              	.LBE310:
 162:src/Handlers.cpp ****     }
 2057              		.loc 1 162 9 is_stmt 1
 162:src/Handlers.cpp ****     }
 2058              		.loc 1 162 16 is_stmt 0
 2059 0cd0 13051000 		li	a0,1
 2060 0cd4 6FF05FFA 		j	.L35
 2061              	.L40:
 2062              	.LBB322:
 2063              	.LBB313:
 149:src/Handlers.cpp ****             uint64 volatile sstatus = Riscv::r_sstatus();
 2064              		.loc 1 149 13 is_stmt 1
 2065              	.LBB314:
 2066              	.LBB315:
 136:src/../inc/riscv.hpp ****     __asm__ volatile ("csrr %[sepc], sepc" : [sepc] "=r"(sepc));
 2067              		.loc 2 136 5
 137:src/../inc/riscv.hpp ****     return sepc;
 2068              		.loc 2 137 5
 137:src/../inc/riscv.hpp ****     return sepc;
 2069              		.loc 2 137 64 is_stmt 0
 2070              	#APP
 2071              	# 137 "src/../inc/riscv.hpp" 1
 2072              		csrr a5, sepc
 2073              	# 0 "" 2
 2074              	#NO_APP
 2075 0cdc 2338F4FC 		sd	a5,-48(s0)
 138:src/../inc/riscv.hpp **** }
 2076              		.loc 2 138 5 is_stmt 1
 138:src/../inc/riscv.hpp **** }
 2077              		.loc 2 138 12 is_stmt 0
 2078 0ce0 833704FD 		ld	a5,-48(s0)
 2079              	.LBE315:
GAS LISTING /tmp/ccb4Yeeq.s 			page 59


 2080              	.LBE314:
 149:src/Handlers.cpp ****             uint64 volatile sstatus = Riscv::r_sstatus();
 2081              		.loc 1 149 50
 2082 0ce4 2338F4FA 		sd	a5,-80(s0)
 150:src/Handlers.cpp ****             /// reset time
 2083              		.loc 1 150 13 is_stmt 1
 2084              	.LBB316:
 2085              	.LBB317:
 204:src/../inc/riscv.hpp ****     __asm__ volatile ("csrr %[sstatus], sstatus" : [sstatus] "=r"(sstatus));
 2086              		.loc 2 204 5
 205:src/../inc/riscv.hpp ****     return sstatus;
 2087              		.loc 2 205 5
 205:src/../inc/riscv.hpp ****     return sstatus;
 2088              		.loc 2 205 76 is_stmt 0
 2089              	#APP
 2090              	# 205 "src/../inc/riscv.hpp" 1
 2091              		csrr a5, sstatus
 2092              	# 0 "" 2
 2093              	#NO_APP
 2094 0cec 2334F4FC 		sd	a5,-56(s0)
 206:src/../inc/riscv.hpp **** }
 2095              		.loc 2 206 5 is_stmt 1
 206:src/../inc/riscv.hpp **** }
 2096              		.loc 2 206 12 is_stmt 0
 2097 0cf0 833784FC 		ld	a5,-56(s0)
 2098              	.LBE317:
 2099              	.LBE316:
 150:src/Handlers.cpp ****             /// reset time
 2100              		.loc 1 150 56
 2101 0cf4 233CF4FA 		sd	a5,-72(s0)
 152:src/Handlers.cpp ****             /// change context
 2102              		.loc 1 152 13 is_stmt 1
 152:src/Handlers.cpp ****             /// change context
 2103              		.loc 1 152 39 is_stmt 0
 2104 0cf8 23B00400 		sd	zero,0(s1)
 154:src/Handlers.cpp ****             /// from new thread stack restore sstatus and sepc
 2105              		.loc 1 154 13 is_stmt 1
 154:src/Handlers.cpp ****             /// from new thread stack restore sstatus and sepc
 2106              		.loc 1 154 30 is_stmt 0
 2107 0cfc 97000000 		call	_ZN7_thread8dispatchEv@plt
 2107      E7800000 
 2108              	.LVL152:
 156:src/Handlers.cpp ****             Riscv::w_sepc(sepc);
 2109              		.loc 1 156 13 is_stmt 1
 156:src/Handlers.cpp ****             Riscv::w_sepc(sepc);
 2110              		.loc 1 156 29 is_stmt 0
 2111 0d04 833784FB 		ld	a5,-72(s0)
 2112              	.LVL153:
 2113              	.LBB318:
 2114              	.LBB319:
 211:src/../inc/riscv.hpp **** }
 2115              		.loc 2 211 5 is_stmt 1
 211:src/../inc/riscv.hpp **** }
 2116              		.loc 2 211 77 is_stmt 0
 2117              	#APP
 2118              	# 211 "src/../inc/riscv.hpp" 1
 2119              		csrw sstatus, a5
GAS LISTING /tmp/ccb4Yeeq.s 			page 60


 2120              	# 0 "" 2
 2121              	.LVL154:
 2122              	#NO_APP
 2123              	.LBE319:
 2124              	.LBE318:
 157:src/Handlers.cpp **** 
 2125              		.loc 1 157 13 is_stmt 1
 157:src/Handlers.cpp **** 
 2126              		.loc 1 157 26 is_stmt 0
 2127 0d0c 833704FB 		ld	a5,-80(s0)
 2128              	.LVL155:
 2129              	.LBB320:
 2130              	.LBB321:
 143:src/../inc/riscv.hpp **** }
 2131              		.loc 2 143 5 is_stmt 1
 143:src/../inc/riscv.hpp **** }
 2132              		.loc 2 143 65 is_stmt 0
 2133              	#APP
 2134              	# 143 "src/../inc/riscv.hpp" 1
 144:src/../inc/riscv.hpp **** 
 2135              		csrw sepc, a5
 2136              	# 0 "" 2
 2137              		.loc 2 144 1
 2138              	#NO_APP
 2139 0d14 6FF0DFFB 		j	.L36
 2140              	.LBE321:
 2141              	.LBE320:
 2142              	.LBE313:
 2143              	.LBE322:
 2144              	.LBE307:
 2145              	.LBE323:
 2146              		.cfi_endproc
 2147              	.LFE85:
 2149              		.align	2
 2150              		.globl	_ZN8Handlers13handleConsoleEv
 2152              	_ZN8Handlers13handleConsoleEv:
 2153              	.LFB86:
 167:src/Handlers.cpp **** 
 168:src/Handlers.cpp **** 
 169:src/Handlers.cpp **** int Handlers::handleConsole() {
 2154              		.loc 1 169 31 is_stmt 1
 2155              		.cfi_startproc
 2156 0d18 130101FE 		addi	sp,sp,-32
 2157              		.cfi_def_cfa_offset 32
 2158 0d1c 233C1100 		sd	ra,24(sp)
 2159 0d20 23388100 		sd	s0,16(sp)
 2160              		.cfi_offset 1, -8
 2161              		.cfi_offset 8, -16
 2162 0d24 13040102 		addi	s0,sp,32
 2163              		.cfi_def_cfa 8, 0
 170:src/Handlers.cpp ****     uint64 volatile cause = Riscv::r_scause();
 2164              		.loc 1 170 5
 2165              	.LBB324:
 2166              	.LBB325:
 124:src/../inc/riscv.hpp ****     __asm__ volatile ("csrr %[scause], scause" : [scause] "=r"(scause));
 2167              		.loc 2 124 5
 125:src/../inc/riscv.hpp ****     return scause;
GAS LISTING /tmp/ccb4Yeeq.s 			page 61


 2168              		.loc 2 125 5
 125:src/../inc/riscv.hpp ****     return scause;
 2169              		.loc 2 125 72 is_stmt 0
 2170              	#APP
 2171              	# 125 "src/../inc/riscv.hpp" 1
 2172              		csrr a5, scause
 2173              	# 0 "" 2
 2174              	#NO_APP
 2175 0d2c 2330F4FE 		sd	a5,-32(s0)
 126:src/../inc/riscv.hpp **** }
 2176              		.loc 2 126 5 is_stmt 1
 126:src/../inc/riscv.hpp **** }
 2177              		.loc 2 126 12 is_stmt 0
 2178 0d30 833704FE 		ld	a5,-32(s0)
 2179              	.LBE325:
 2180              	.LBE324:
 2181              		.loc 1 170 45
 2182 0d34 2334F4FE 		sd	a5,-24(s0)
 171:src/Handlers.cpp ****     if(cause == 0x8000000000000009UL){ /// CONSOLE
 2183              		.loc 1 171 5 is_stmt 1
 2184              		.loc 1 171 14 is_stmt 0
 2185 0d38 033784FE 		ld	a4,-24(s0)
 2186              		.loc 1 171 5
 2187 0d3c 9307F0FF 		li	a5,-1
 2188 0d40 9397F703 		slli	a5,a5,63
 2189 0d44 93879700 		addi	a5,a5,9
 2190 0d48 630CF700 		beq	a4,a5,.L45
 172:src/Handlers.cpp ****         // interrupt: yes, cause code: supervisor external interrupt (console)
 173:src/Handlers.cpp ****         _console::getcHandle();
 174:src/Handlers.cpp ****        // console_handler(); // uncomment this to use GETC from lib
 175:src/Handlers.cpp ****         Riscv::mc_sip(Riscv::SIP_SSIE); // interrupt done
 176:src/Handlers.cpp ****         return 1;
 177:src/Handlers.cpp ****     }
 178:src/Handlers.cpp ****     return 0;
 2191              		.loc 1 178 12
 2192 0d4c 13050000 		li	a0,0
 2193              	.L42:
 179:src/Handlers.cpp **** }
 2194              		.loc 1 179 1
 2195 0d50 83308101 		ld	ra,24(sp)
 2196              		.cfi_remember_state
 2197              		.cfi_restore 1
 2198 0d54 03340101 		ld	s0,16(sp)
 2199              		.cfi_restore 8
 2200              		.cfi_def_cfa 2, 32
 2201 0d58 13010102 		addi	sp,sp,32
 2202              		.cfi_def_cfa_offset 0
 2203 0d5c 67800000 		jr	ra
 2204              	.L45:
 2205              		.cfi_restore_state
 173:src/Handlers.cpp ****        // console_handler(); // uncomment this to use GETC from lib
 2206              		.loc 1 173 9 is_stmt 1
 173:src/Handlers.cpp ****        // console_handler(); // uncomment this to use GETC from lib
 2207              		.loc 1 173 29 is_stmt 0
 2208 0d60 97000000 		call	_ZN8_console10getcHandleEv@plt
 2208      E7800000 
 2209              	.LVL156:
GAS LISTING /tmp/ccb4Yeeq.s 			page 62


 175:src/Handlers.cpp ****         return 1;
 2210              		.loc 1 175 9 is_stmt 1
 2211              	.LBB326:
 2212              	.LBB327:
 177:src/../inc/riscv.hpp **** }
 2213              		.loc 2 177 5
 177:src/../inc/riscv.hpp **** }
 2214              		.loc 2 177 64 is_stmt 0
 2215 0d68 93072000 		li	a5,2
 2216              	#APP
 2217              	# 177 "src/../inc/riscv.hpp" 1
 2218              		csrc sip, a5
 2219              	# 0 "" 2
 2220              	.LVL157:
 2221              	#NO_APP
 2222              	.LBE327:
 2223              	.LBE326:
 176:src/Handlers.cpp ****     }
 2224              		.loc 1 176 9 is_stmt 1
 176:src/Handlers.cpp ****     }
 2225              		.loc 1 176 16 is_stmt 0
 2226 0d70 13051000 		li	a0,1
 2227 0d74 6FF0DFFD 		j	.L42
 2228              		.cfi_endproc
 2229              	.LFE86:
 2231              	.Letext0:
 2232              		.file 4 "src/../inc/Handlers.hpp"
 2233              		.file 5 "src/../inc/../lib/hw.h"
 2234              		.file 6 "src/../inc/syscall_c.hpp"
 2235              		.file 7 "src/../inc/../inc/_sem.hpp"
 2236              		.file 8 "src/../inc/../inc/MemoryAllocator.hpp"
 2237              		.file 9 "src/../inc/List.hpp"
 2238              		.file 10 "src/../inc/../inc/List_sorted.hpp"
 2239              		.file 11 "src/../inc/../inc/ConsoleBuffer.hpp"
 2240              		.file 12 "src/../inc/_console.hpp"
 2241              		.file 13 "src/../inc/../inc/printingSupervisor.hpp"
 2242              		.file 14 "src/../inc/../inc/sysID.hpp"
GAS LISTING /tmp/ccb4Yeeq.s 			page 63

