GAS LISTING /tmp/ccH3sGQr.s 			page 1


   1              		.file	"main.cpp"
   2              		.option pic
   3              		.option norelax
   4              		.text
   5              	.Ltext0:
   6              		.align	2
   7              		.globl	_Z15userMainWrapperPv
   9              	_Z15userMainWrapperPv:
  10              	.LFB88:
  11              		.file 1 "src/main.cpp"
   1:src/main.cpp  **** 
   2:src/main.cpp  **** #include "../inc/syscall_c.hpp"
   3:src/main.cpp  **** #include "../inc/syscall_cpp.hpp"
   4:src/main.cpp  **** #include "../inc/riscv.hpp"
   5:src/main.cpp  **** #include "../inc/Handlers.hpp"
   6:src/main.cpp  **** #include "../inc/_thread.hpp"
   7:src/main.cpp  **** #include "../inc/_console.hpp"
   8:src/main.cpp  **** 
   9:src/main.cpp  **** 
  10:src/main.cpp  **** extern void userMain();
  11:src/main.cpp  **** 
  12:src/main.cpp  **** static bool usrFinished = false;
  13:src/main.cpp  **** 
  14:src/main.cpp  **** void userMainWrapper(void* ){
  12              		.loc 1 14 29
  13              		.cfi_startproc
  14 0000 130101FF 		addi	sp,sp,-16
  15              		.cfi_def_cfa_offset 16
  16 0004 23341100 		sd	ra,8(sp)
  17 0008 23308100 		sd	s0,0(sp)
  18              		.cfi_offset 1, -8
  19              		.cfi_offset 8, -16
  20 000c 13040101 		addi	s0,sp,16
  21              		.cfi_def_cfa 8, 0
  15:src/main.cpp  ****     userMain();
  22              		.loc 1 15 5
  23              		.loc 1 15 13 is_stmt 0
  24 0010 97000000 		call	_Z8userMainv@plt
  24      E7800000 
  25              	.LVL0:
  16:src/main.cpp  **** 
  17:src/main.cpp  **** 
  18:src/main.cpp  ****     usrFinished = true;
  26              		.loc 1 18 5 is_stmt 1
  27              		.loc 1 18 17 is_stmt 0
  28 0018 93071000 		li	a5,1
  29 001c 17070000 		sb	a5,.LANCHOR0,a4
  29      2300F700 
  19:src/main.cpp  **** }
  30              		.loc 1 19 1
  31 0024 83308100 		ld	ra,8(sp)
  32              		.cfi_restore 1
  33 0028 03340100 		ld	s0,0(sp)
  34              		.cfi_restore 8
  35              		.cfi_def_cfa 2, 16
  36 002c 13010101 		addi	sp,sp,16
  37              		.cfi_def_cfa_offset 0
GAS LISTING /tmp/ccH3sGQr.s 			page 2


  38 0030 67800000 		jr	ra
  39              		.cfi_endproc
  40              	.LFE88:
  42              		.section	.rodata.str1.8,"aMS",@progbits,1
  43              		.align	3
  44              	.LC0:
  45 0000 0A4E6F74 		.string	"\nNot deallocated.\n"
  45      20646561 
  45      6C6C6F63 
  45      61746564 
  45      2E0A00
  46 0013 00000000 		.align	3
  46      00
  47              	.LC1:
  48 0018 0A446561 		.string	"\nDeallocated: YES.\n"
  48      6C6C6F63 
  48      61746564 
  48      3A205945 
  48      532E0A00 
  49 002c 00000000 		.align	3
  50              	.LC2:
  51 0030 46524545 		.string	"FREEING-MAIN\n"
  51      494E472D 
  51      4D41494E 
  51      0A00
  52              		.text
  53              		.align	2
  54              		.globl	main
  56              	main:
  57              	.LFB89:
  20:src/main.cpp  **** 
  21:src/main.cpp  **** int main(){
  58              		.loc 1 21 11 is_stmt 1
  59              		.cfi_startproc
  60              		.cfi_personality 0x9b,DW.ref.__gxx_personality_v0
  61              		.cfi_lsda 0x1b,.LLSDA89
  62 0034 130101FC 		addi	sp,sp,-64
  63              		.cfi_def_cfa_offset 64
  64 0038 233C1102 		sd	ra,56(sp)
  65 003c 23388102 		sd	s0,48(sp)
  66 0040 23349102 		sd	s1,40(sp)
  67 0044 23302103 		sd	s2,32(sp)
  68              		.cfi_offset 1, -8
  69              		.cfi_offset 8, -16
  70              		.cfi_offset 9, -24
  71              		.cfi_offset 18, -32
  72 0048 13040104 		addi	s0,sp,64
  73              		.cfi_def_cfa 8, 0
  22:src/main.cpp  ****     /// sstatus <= 0b10, intr enabled
  23:src/main.cpp  ****     /// stvec <= adresa syscallHandler prekidne rutine iz .S fajla, |0b00 direktan rezim 00 na posl
  24:src/main.cpp  ****     Riscv::w_stvec( (uint64)&Handlers::trapHandler | 0b00);
  74              		.loc 1 24 5
  75              		.loc 1 24 19 is_stmt 0
  76 004c 97070000 		la	a5,_ZN8Handlers11trapHandlerEv
  76      83B70700 
  77              	.LVL1:
  78              	.LBB28:
GAS LISTING /tmp/ccH3sGQr.s 			page 3


  79              	.LBB29:
  80              		.file 2 "src/../inc/riscv.hpp"
   1:src/../inc/riscv.hpp **** //
   2:src/../inc/riscv.hpp **** // Created by marko on 20.4.22..
   3:src/../inc/riscv.hpp **** //
   4:src/../inc/riscv.hpp **** 
   5:src/../inc/riscv.hpp **** #ifndef OS1_VEZBE07_RISCV_CONTEXT_SWITCH_1_SYNCHRONOUS_RISCV_HPP
   6:src/../inc/riscv.hpp **** #define OS1_VEZBE07_RISCV_CONTEXT_SWITCH_1_SYNCHRONOUS_RISCV_HPP
   7:src/../inc/riscv.hpp **** 
   8:src/../inc/riscv.hpp **** #include "../lib/hw.h"
   9:src/../inc/riscv.hpp **** #include "../inc/printingSupervisor.hpp"
  10:src/../inc/riscv.hpp **** #include "../inc/sysID.hpp"
  11:src/../inc/riscv.hpp **** #include "../inc/MemoryAllocator.hpp"
  12:src/../inc/riscv.hpp **** class Riscv
  13:src/../inc/riscv.hpp **** {
  14:src/../inc/riscv.hpp **** public:
  15:src/../inc/riscv.hpp ****     friend class Handlers;
  16:src/../inc/riscv.hpp **** //    // pop sstatus.spp and sstatus.spie bits (has to be a non inline function)
  17:src/../inc/riscv.hpp ****     static void popSstatusSPPandSPIE(bool swToUsr);
  18:src/../inc/riscv.hpp ****     enum Mode{
  19:src/../inc/riscv.hpp ****         USER, SUPERVISOR
  20:src/../inc/riscv.hpp ****     };
  21:src/../inc/riscv.hpp ****     static void changeMode(Mode mode);
  22:src/../inc/riscv.hpp **** 
  23:src/../inc/riscv.hpp ****     static void printStats();
  24:src/../inc/riscv.hpp ****     //
  25:src/../inc/riscv.hpp **** //    // push x3..x31 registers onto stack
  26:src/../inc/riscv.hpp **** //    static void pushRegisters();
  27:src/../inc/riscv.hpp **** //
  28:src/../inc/riscv.hpp **** //    // pop x3..x31 registers onto stack
  29:src/../inc/riscv.hpp **** //    static void popRegisters();
  30:src/../inc/riscv.hpp **** 
  31:src/../inc/riscv.hpp ****     // read register scause
  32:src/../inc/riscv.hpp ****     static uint64 r_scause();
  33:src/../inc/riscv.hpp **** 
  34:src/../inc/riscv.hpp ****     // write register scause
  35:src/../inc/riscv.hpp ****     static void w_scause(uint64 scause);
  36:src/../inc/riscv.hpp **** 
  37:src/../inc/riscv.hpp ****     // read register sepc
  38:src/../inc/riscv.hpp ****     static uint64 r_sepc();
  39:src/../inc/riscv.hpp **** 
  40:src/../inc/riscv.hpp ****     // write register sepc
  41:src/../inc/riscv.hpp ****     static void w_sepc(uint64 sepc);
  42:src/../inc/riscv.hpp **** 
  43:src/../inc/riscv.hpp ****     // read register stvec
  44:src/../inc/riscv.hpp ****     static uint64 r_stvec();
  45:src/../inc/riscv.hpp **** 
  46:src/../inc/riscv.hpp ****     // write register stvec
  47:src/../inc/riscv.hpp ****     static void w_stvec(uint64 stvec);
  48:src/../inc/riscv.hpp **** 
  49:src/../inc/riscv.hpp ****     // read register stval
  50:src/../inc/riscv.hpp ****     static uint64 r_stval();
  51:src/../inc/riscv.hpp **** 
  52:src/../inc/riscv.hpp ****     // write register stval
  53:src/../inc/riscv.hpp ****     static void w_stval(uint64 stval);
  54:src/../inc/riscv.hpp **** 
  55:src/../inc/riscv.hpp ****     enum BitMaskSip
GAS LISTING /tmp/ccH3sGQr.s 			page 4


  56:src/../inc/riscv.hpp ****     {
  57:src/../inc/riscv.hpp ****         SIP_SSIE = (1 << 1),
  58:src/../inc/riscv.hpp ****         SIP_STIE = (1 << 5),
  59:src/../inc/riscv.hpp ****         SIP_SEIE = (1 << 9),
  60:src/../inc/riscv.hpp ****     };
  61:src/../inc/riscv.hpp **** 
  62:src/../inc/riscv.hpp ****     // mask set register sip
  63:src/../inc/riscv.hpp ****     static void ms_sip(uint64 mask);
  64:src/../inc/riscv.hpp **** 
  65:src/../inc/riscv.hpp ****     // mask clear register sip
  66:src/../inc/riscv.hpp ****     static void mc_sip(uint64 mask);
  67:src/../inc/riscv.hpp **** 
  68:src/../inc/riscv.hpp ****     // read register sip
  69:src/../inc/riscv.hpp ****     static uint64 r_sip();
  70:src/../inc/riscv.hpp **** 
  71:src/../inc/riscv.hpp ****     // write register sip
  72:src/../inc/riscv.hpp ****     static void w_sip(uint64 sip);
  73:src/../inc/riscv.hpp **** 
  74:src/../inc/riscv.hpp ****     enum BitMaskSstatus
  75:src/../inc/riscv.hpp ****     {
  76:src/../inc/riscv.hpp ****         SSTATUS_SIE = (1 << 1),
  77:src/../inc/riscv.hpp ****         SSTATUS_SPIE = (1 << 5),
  78:src/../inc/riscv.hpp ****         SSTATUS_SPP = (1 << 8),
  79:src/../inc/riscv.hpp ****     };
  80:src/../inc/riscv.hpp **** 
  81:src/../inc/riscv.hpp ****     // mask set register sstatus
  82:src/../inc/riscv.hpp ****     static void ms_sstatus(uint64 mask);
  83:src/../inc/riscv.hpp **** 
  84:src/../inc/riscv.hpp ****     // mask clear register sstatus
  85:src/../inc/riscv.hpp ****     static void mc_sstatus(uint64 mask);
  86:src/../inc/riscv.hpp **** 
  87:src/../inc/riscv.hpp ****     // read register sstatus
  88:src/../inc/riscv.hpp ****     static uint64 r_sstatus();
  89:src/../inc/riscv.hpp **** 
  90:src/../inc/riscv.hpp ****     // write register sstatus
  91:src/../inc/riscv.hpp ****     static void w_sstatus(uint64 sstatus);
  92:src/../inc/riscv.hpp **** 
  93:src/../inc/riscv.hpp ****     // ====================================================================
  94:src/../inc/riscv.hpp **** 
  95:src/../inc/riscv.hpp ****     static void ecall();
  96:src/../inc/riscv.hpp **** 
  97:src/../inc/riscv.hpp ****     static uint64 r_a0();
  98:src/../inc/riscv.hpp **** 
  99:src/../inc/riscv.hpp ****     static void w_a0(uint64 a0);
 100:src/../inc/riscv.hpp **** 
 101:src/../inc/riscv.hpp ****     static uint64 r_a1();
 102:src/../inc/riscv.hpp **** 
 103:src/../inc/riscv.hpp ****     static void w_a1(uint64 a1);
 104:src/../inc/riscv.hpp **** 
 105:src/../inc/riscv.hpp ****     static uint64 r_a2();
 106:src/../inc/riscv.hpp **** 
 107:src/../inc/riscv.hpp ****     static void w_a2(uint64 a2);
 108:src/../inc/riscv.hpp **** 
 109:src/../inc/riscv.hpp ****     static uint64 r_a3();
 110:src/../inc/riscv.hpp **** 
 111:src/../inc/riscv.hpp ****     static void w_a3(uint64 a3);
 112:src/../inc/riscv.hpp **** 
GAS LISTING /tmp/ccH3sGQr.s 			page 5


 113:src/../inc/riscv.hpp ****     static uint64 r_a4();
 114:src/../inc/riscv.hpp **** 
 115:src/../inc/riscv.hpp ****     static void w_a4(uint64 a4);
 116:src/../inc/riscv.hpp **** 
 117:src/../inc/riscv.hpp ****     static void halt();
 118:src/../inc/riscv.hpp **** private:
 119:src/../inc/riscv.hpp ****     static void swMode(Mode mode); // only from trap
 120:src/../inc/riscv.hpp **** };
 121:src/../inc/riscv.hpp **** 
 122:src/../inc/riscv.hpp **** inline uint64 Riscv::r_scause()
 123:src/../inc/riscv.hpp **** {
 124:src/../inc/riscv.hpp ****     uint64 volatile scause;
 125:src/../inc/riscv.hpp ****     __asm__ volatile ("csrr %[scause], scause" : [scause] "=r"(scause));
 126:src/../inc/riscv.hpp ****     return scause;
 127:src/../inc/riscv.hpp **** }
 128:src/../inc/riscv.hpp **** 
 129:src/../inc/riscv.hpp **** inline void Riscv::w_scause(uint64 scause)
 130:src/../inc/riscv.hpp **** {
 131:src/../inc/riscv.hpp ****     __asm__ volatile ("csrw scause, %[scause]" : : [scause] "r"(scause));
 132:src/../inc/riscv.hpp **** }
 133:src/../inc/riscv.hpp **** 
 134:src/../inc/riscv.hpp **** inline uint64 Riscv::r_sepc()
 135:src/../inc/riscv.hpp **** {
 136:src/../inc/riscv.hpp ****     uint64 volatile sepc;
 137:src/../inc/riscv.hpp ****     __asm__ volatile ("csrr %[sepc], sepc" : [sepc] "=r"(sepc));
 138:src/../inc/riscv.hpp ****     return sepc;
 139:src/../inc/riscv.hpp **** }
 140:src/../inc/riscv.hpp **** 
 141:src/../inc/riscv.hpp **** inline void Riscv::w_sepc(uint64 sepc)
 142:src/../inc/riscv.hpp **** {
 143:src/../inc/riscv.hpp ****     __asm__ volatile ("csrw sepc, %[sepc]" : : [sepc] "r"(sepc));
 144:src/../inc/riscv.hpp **** }
 145:src/../inc/riscv.hpp **** 
 146:src/../inc/riscv.hpp **** inline uint64 Riscv::r_stvec()
 147:src/../inc/riscv.hpp **** {
 148:src/../inc/riscv.hpp ****     uint64 volatile stvec;
 149:src/../inc/riscv.hpp ****     __asm__ volatile ("csrr %[stvec], stvec" : [stvec] "=r"(stvec));
 150:src/../inc/riscv.hpp ****     return stvec;
 151:src/../inc/riscv.hpp **** }
 152:src/../inc/riscv.hpp **** 
 153:src/../inc/riscv.hpp **** inline void Riscv::w_stvec(uint64 stvec)
 154:src/../inc/riscv.hpp **** {
 155:src/../inc/riscv.hpp ****     __asm__ volatile ("csrw stvec, %[stvec]" : : [stvec] "r"(stvec));
  81              		.loc 2 155 5 is_stmt 1
  82              		.loc 2 155 69 is_stmt 0
  83              	#APP
  84              	# 155 "src/../inc/riscv.hpp" 1
 156              	}
  85              		csrw stvec, a5
  86              	# 0 "" 2
  87              	.LVL2:
  88              	#NO_APP
  89              	.LBE29:
  90              	.LBE28:
  25:src/main.cpp  **** 
  26:src/main.cpp  ****     thread_t t, usr, putcThread;
  91              		.loc 1 26 5 is_stmt 1
GAS LISTING /tmp/ccH3sGQr.s 			page 6


  27:src/main.cpp  ****     thread_create(&t, nullptr, nullptr); /// mainThread (running)
  92              		.loc 1 27 5
  93              		.loc 1 27 18 is_stmt 0
  94 0058 13060000 		li	a2,0
  95 005c 93050000 		li	a1,0
  96 0060 130584FD 		addi	a0,s0,-40
  97              	.LEHB0:
  98 0064 97000000 		call	thread_create@plt
  98      E7800000 
  99              	.LVL3:
  28:src/main.cpp  **** 
  29:src/main.cpp  ****     ConsoleBuffer* putc_buffer = new ConsoleBuffer(); ConsoleBuffer* getc_buffer = new ConsoleBuffe
 100              		.loc 1 29 5 is_stmt 1
 101              		.loc 1 29 52 is_stmt 0
 102 006c 13058002 		li	a0,40
 103 0070 97000000 		call	_Znwm@plt
 103      E7800000 
 104              	.LVL4:
 105              	.LEHE0:
 106 0078 13090500 		mv	s2,a0
 107 007c 93050010 		li	a1,256
 108              	.LEHB1:
 109 0080 97000000 		call	_ZN13ConsoleBufferC1Ei@plt
 109      E7800000 
 110              	.LVL5:
 111              	.LEHE1:
 112              		.loc 1 29 55 is_stmt 1
 113              		.loc 1 29 102 is_stmt 0
 114 0088 13058002 		li	a0,40
 115              	.LEHB2:
 116 008c 97000000 		call	_Znwm@plt
 116      E7800000 
 117              	.LVL6:
 118              	.LEHE2:
 119 0094 93040500 		mv	s1,a0
 120 0098 93050010 		li	a1,256
 121              	.LEHB3:
 122 009c 97000000 		call	_ZN13ConsoleBufferC1Ei@plt
 122      E7800000 
 123              	.LVL7:
 124              	.LEHE3:
  30:src/main.cpp  ****     _console::putcBuffer = putc_buffer; _console::getcBuffer = getc_buffer;
 125              		.loc 1 30 5 is_stmt 1
 126              		.loc 1 30 26 is_stmt 0
 127 00a4 97070000 		la	a5,_ZN8_console10putcBufferE
 127      83B70700 
 128 00ac 23B02701 		sd	s2,0(a5)
 129              		.loc 1 30 41 is_stmt 1
 130              		.loc 1 30 62 is_stmt 0
 131 00b0 97070000 		la	a5,_ZN8_console10getcBufferE
 131      83B70700 
 132 00b8 23B09700 		sd	s1,0(a5)
  31:src/main.cpp  **** 
  32:src/main.cpp  ****     thread_create(&putcThread, _console::putcHandle, (void*) 1);
 133              		.loc 1 32 5 is_stmt 1
 134              		.loc 1 32 18 is_stmt 0
 135 00bc 13061000 		li	a2,1
GAS LISTING /tmp/ccH3sGQr.s 			page 7


 136 00c0 97050000 		la	a1,_ZN8_console10putcHandleEPv
 136      83B50500 
 137 00c8 130584FC 		addi	a0,s0,-56
 138              	.LEHB4:
 139 00cc 97000000 		call	thread_create@plt
 139      E7800000 
 140              	.LVL8:
  33:src/main.cpp  ****     _thread::putcThr = putcThread;
 141              		.loc 1 33 5 is_stmt 1
 142              		.loc 1 33 22 is_stmt 0
 143 00d4 97070000 		la	a5,_ZN7_thread7putcThrE
 143      83B70700 
 144 00dc 033784FC 		ld	a4,-56(s0)
 145 00e0 23B0E700 		sd	a4,0(a5)
  34:src/main.cpp  ****     /// IMPORTANT! do not delete this dispatch. This is here so putcThread gets its SUPERVISOR priv
  35:src/main.cpp  ****     /// also, it blocks putcThread on a buffer semaphore until putc is called.
  36:src/main.cpp  ****     thread_dispatch();
 146              		.loc 1 36 5 is_stmt 1
 147              		.loc 1 36 20 is_stmt 0
 148 00e4 97000000 		call	thread_dispatch@plt
 148      E7800000 
 149              	.LVL9:
  37:src/main.cpp  **** 
  38:src/main.cpp  ****     Riscv::changeMode(Riscv::Mode::USER);
 150              		.loc 1 38 5 is_stmt 1
 157:src/../inc/riscv.hpp **** 
 158:src/../inc/riscv.hpp **** inline uint64 Riscv::r_stval()
 159:src/../inc/riscv.hpp **** {
 160:src/../inc/riscv.hpp ****     uint64 volatile stval;
 161:src/../inc/riscv.hpp ****     __asm__ volatile ("csrr %[stval], stval" : [stval] "=r"(stval));
 162:src/../inc/riscv.hpp ****     return stval;
 163:src/../inc/riscv.hpp **** }
 164:src/../inc/riscv.hpp **** 
 165:src/../inc/riscv.hpp **** inline void Riscv::w_stval(uint64 stval)
 166:src/../inc/riscv.hpp **** {
 167:src/../inc/riscv.hpp ****     __asm__ volatile ("csrw stval, %[stval]" : : [stval] "r"(stval));
 168:src/../inc/riscv.hpp **** }
 169:src/../inc/riscv.hpp **** 
 170:src/../inc/riscv.hpp **** inline void Riscv::ms_sip(uint64 mask)
 171:src/../inc/riscv.hpp **** {
 172:src/../inc/riscv.hpp ****     __asm__ volatile ("csrs sip, %[mask]" : : [mask] "r"(mask));
 173:src/../inc/riscv.hpp **** }
 174:src/../inc/riscv.hpp **** 
 175:src/../inc/riscv.hpp **** inline void Riscv::mc_sip(uint64 mask)
 176:src/../inc/riscv.hpp **** {
 177:src/../inc/riscv.hpp ****     __asm__ volatile ("csrc sip, %[mask]" : : [mask] "r"(mask));
 178:src/../inc/riscv.hpp **** }
 179:src/../inc/riscv.hpp **** 
 180:src/../inc/riscv.hpp **** inline uint64 Riscv::r_sip()
 181:src/../inc/riscv.hpp **** {
 182:src/../inc/riscv.hpp ****     uint64 volatile sip;
 183:src/../inc/riscv.hpp ****     __asm__ volatile ("csrr %[sip], sip" : [sip] "=r"(sip));
 184:src/../inc/riscv.hpp ****     return sip;
 185:src/../inc/riscv.hpp **** }
 186:src/../inc/riscv.hpp **** 
 187:src/../inc/riscv.hpp **** inline void Riscv::w_sip(uint64 sip)
 188:src/../inc/riscv.hpp **** {
GAS LISTING /tmp/ccH3sGQr.s 			page 8


 189:src/../inc/riscv.hpp ****     __asm__ volatile ("csrw sip, %[sip]" : : [sip] "r"(sip));
 190:src/../inc/riscv.hpp **** }
 191:src/../inc/riscv.hpp **** 
 192:src/../inc/riscv.hpp **** inline void Riscv::ms_sstatus(uint64 mask)
 193:src/../inc/riscv.hpp **** {
 194:src/../inc/riscv.hpp ****     __asm__ volatile ("csrs sstatus, %[mask]" : : [mask] "r"(mask));
 195:src/../inc/riscv.hpp **** }
 196:src/../inc/riscv.hpp **** 
 197:src/../inc/riscv.hpp **** inline void Riscv::mc_sstatus(uint64 mask)
 198:src/../inc/riscv.hpp **** {
 199:src/../inc/riscv.hpp ****     __asm__ volatile ("csrc sstatus, %[mask]" : : [mask] "r"(mask));
 200:src/../inc/riscv.hpp **** }
 201:src/../inc/riscv.hpp **** 
 202:src/../inc/riscv.hpp **** inline uint64 Riscv::r_sstatus()
 203:src/../inc/riscv.hpp **** {
 204:src/../inc/riscv.hpp ****     uint64 volatile sstatus;
 205:src/../inc/riscv.hpp ****     __asm__ volatile ("csrr %[sstatus], sstatus" : [sstatus] "=r"(sstatus));
 206:src/../inc/riscv.hpp ****     return sstatus;
 207:src/../inc/riscv.hpp **** }
 208:src/../inc/riscv.hpp **** 
 209:src/../inc/riscv.hpp **** inline void Riscv::w_sstatus(uint64 sstatus)
 210:src/../inc/riscv.hpp **** {
 211:src/../inc/riscv.hpp ****     __asm__ volatile ("csrw sstatus, %[sstatus]" : : [sstatus] "r"(sstatus));
 212:src/../inc/riscv.hpp **** }
 213:src/../inc/riscv.hpp **** 
 214:src/../inc/riscv.hpp **** // ========================================================================
 215:src/../inc/riscv.hpp **** 
 216:src/../inc/riscv.hpp **** 
 217:src/../inc/riscv.hpp **** inline void Riscv::ecall() {
 218:src/../inc/riscv.hpp ****     __asm__ volatile ("ecall");
 219:src/../inc/riscv.hpp **** }
 220:src/../inc/riscv.hpp **** 
 221:src/../inc/riscv.hpp **** inline uint64 Riscv::r_a0() {
 222:src/../inc/riscv.hpp ****     uint64 volatile a0;
 223:src/../inc/riscv.hpp ****     __asm__ volatile ("mv %[a0], a0" : [a0] "=r"(a0));
 224:src/../inc/riscv.hpp ****     return a0;
 225:src/../inc/riscv.hpp **** }
 226:src/../inc/riscv.hpp **** 
 227:src/../inc/riscv.hpp **** inline void Riscv::w_a0(uint64 a0) {
 228:src/../inc/riscv.hpp ****     __asm__ volatile ("mv a0, %[a0]" : : [a0] "r"(a0));
 229:src/../inc/riscv.hpp **** }
 230:src/../inc/riscv.hpp **** 
 231:src/../inc/riscv.hpp **** inline uint64 Riscv::r_a1() {
 232:src/../inc/riscv.hpp ****     uint64 volatile a1;
 233:src/../inc/riscv.hpp ****     __asm__ volatile ("mv %[a1], a1" : [a1] "=r"(a1));
 234:src/../inc/riscv.hpp ****     return a1;
 235:src/../inc/riscv.hpp **** }
 236:src/../inc/riscv.hpp **** 
 237:src/../inc/riscv.hpp **** inline void Riscv::w_a1(uint64 a1) {
 238:src/../inc/riscv.hpp ****     __asm__ volatile ("mv a1, %[a1]" : : [a1] "r"(a1));
 239:src/../inc/riscv.hpp **** }
 240:src/../inc/riscv.hpp **** 
 241:src/../inc/riscv.hpp **** inline uint64 Riscv::r_a2() {
 242:src/../inc/riscv.hpp ****     uint64 volatile a2;
 243:src/../inc/riscv.hpp ****     __asm__ volatile ("mv %[a2], a2" : [a2] "=r"(a2));
 244:src/../inc/riscv.hpp ****     return a2;
 245:src/../inc/riscv.hpp **** }
GAS LISTING /tmp/ccH3sGQr.s 			page 9


 246:src/../inc/riscv.hpp **** 
 247:src/../inc/riscv.hpp **** inline void Riscv::w_a2(uint64 a2) {
 248:src/../inc/riscv.hpp ****     __asm__ volatile ("mv a2, %[a2]" : : [a2] "r"(a2));
 249:src/../inc/riscv.hpp **** }
 250:src/../inc/riscv.hpp **** 
 251:src/../inc/riscv.hpp **** inline uint64 Riscv::r_a3() {
 252:src/../inc/riscv.hpp ****     uint64 volatile a3;
 253:src/../inc/riscv.hpp ****     __asm__ volatile ("mv %[a3], a3" : [a3] "=r"(a3));
 254:src/../inc/riscv.hpp ****     return a3;
 255:src/../inc/riscv.hpp **** }
 256:src/../inc/riscv.hpp **** 
 257:src/../inc/riscv.hpp **** inline void Riscv::w_a3(uint64 a3) {
 258:src/../inc/riscv.hpp ****     __asm__ volatile ("mv a3, %[a3]" : : [a3] "r"(a3));
 259:src/../inc/riscv.hpp **** }
 260:src/../inc/riscv.hpp **** 
 261:src/../inc/riscv.hpp **** inline uint64 Riscv::r_a4() {
 262:src/../inc/riscv.hpp ****     uint64 volatile a4;
 263:src/../inc/riscv.hpp ****     __asm__ volatile ("mv %[a4], a4" : [a4] "=r"(a4));
 264:src/../inc/riscv.hpp ****     return a4;
 265:src/../inc/riscv.hpp **** }
 266:src/../inc/riscv.hpp **** 
 267:src/../inc/riscv.hpp **** inline void Riscv::w_a4(uint64 a4) {
 268:src/../inc/riscv.hpp ****     __asm__ volatile ("mv a4, %[a4]" : : [a4] "r"(a4));
 269:src/../inc/riscv.hpp **** }
 270:src/../inc/riscv.hpp **** 
 271:src/../inc/riscv.hpp **** inline void Riscv::halt() {
 272:src/../inc/riscv.hpp ****     __asm__ volatile("li t0, 0x5555");
 273:src/../inc/riscv.hpp ****     __asm__ volatile("li t1, 0x100000");
 274:src/../inc/riscv.hpp ****     __asm__ volatile("sw t0, 0(t1) ");
 275:src/../inc/riscv.hpp **** }
 276:src/../inc/riscv.hpp **** 
 277:src/../inc/riscv.hpp **** inline void Riscv::swMode(Riscv::Mode mode) {
 278:src/../inc/riscv.hpp **** 
 279:src/../inc/riscv.hpp ****     if(mode == USER) // change to user mode
 280:src/../inc/riscv.hpp ****         Riscv::mc_sstatus(Riscv::SSTATUS_SPP); // previous privileges
 281:src/../inc/riscv.hpp ****     else if(mode == SUPERVISOR)
 282:src/../inc/riscv.hpp ****         Riscv::ms_sstatus(Riscv::SSTATUS_SPP);
 283:src/../inc/riscv.hpp **** 
 284:src/../inc/riscv.hpp **** }
 285:src/../inc/riscv.hpp **** 
 286:src/../inc/riscv.hpp **** inline void Riscv::changeMode(Riscv::Mode mode) {
 287:src/../inc/riscv.hpp ****     Riscv::w_a0(sysID::CHANGE_MODE);
 151              		.loc 2 287 5
 152              	.LBB30:
 153              	.LBB31:
 154              	.LBB32:
 228:src/../inc/riscv.hpp **** }
 155              		.loc 2 228 5
 228:src/../inc/riscv.hpp **** }
 156              		.loc 2 228 55 is_stmt 0
 157 00ec 93079009 		li	a5,153
 158              	#APP
 159              	# 228 "src/../inc/riscv.hpp" 1
 160              		mv a0, a5
 161              	# 0 "" 2
 162              	.LVL10:
 163              	#NO_APP
GAS LISTING /tmp/ccH3sGQr.s 			page 10


 164              	.LBE32:
 165              	.LBE31:
 166              	.LBE30:
 288:src/../inc/riscv.hpp ****     Riscv::w_a1(mode); // 0 is user mode
 167              		.loc 2 288 5 is_stmt 1
 168              	.LBB37:
 169              	.LBB33:
 170              	.LBB34:
 238:src/../inc/riscv.hpp **** }
 171              		.loc 2 238 5
 238:src/../inc/riscv.hpp **** }
 172              		.loc 2 238 55 is_stmt 0
 173 00f4 93070000 		li	a5,0
 174              	#APP
 175              	# 238 "src/../inc/riscv.hpp" 1
 176              		mv a1, a5
 177              	# 0 "" 2
 178              	.LVL11:
 179              	#NO_APP
 180              	.LBE34:
 181              	.LBE33:
 182              	.LBE37:
 289:src/../inc/riscv.hpp ****     Riscv::ecall();
 183              		.loc 2 289 5 is_stmt 1
 184              	.LBB38:
 185              	.LBB35:
 186              	.LBB36:
 218:src/../inc/riscv.hpp **** }
 187              		.loc 2 218 5
 218:src/../inc/riscv.hpp **** }
 188              		.loc 2 218 31 is_stmt 0
 189              	#APP
 190              	# 218 "src/../inc/riscv.hpp" 1
 191              		ecall
 192              	# 0 "" 2
 193              	.LVL12:
 194              	#NO_APP
 195              	.LBE36:
 196              	.LBE35:
 197              	.LBE38:
  39:src/main.cpp  ****     /// entered user mode
  40:src/main.cpp  **** 
  41:src/main.cpp  **** 
  42:src/main.cpp  ****     thread_create(&usr, userMainWrapper, nullptr);
 198              		.loc 1 42 5 is_stmt 1
 199              		.loc 1 42 18 is_stmt 0
 200 0100 13060000 		li	a2,0
 201 0104 97050000 		lla	a1,_Z15userMainWrapperPv
 201      93850500 
 202 010c 130504FD 		addi	a0,s0,-48
 203 0110 97000000 		call	thread_create@plt
 203      E7800000 
 204              	.LVL13:
 205 0118 6F00C000 		j	.L7
 206              	.L4:
  43:src/main.cpp  **** 
  44:src/main.cpp  **** 
GAS LISTING /tmp/ccH3sGQr.s 			page 11


  45:src/main.cpp  ****     while (!_thread::schedulerEmpty() || !usrFinished //|| _thread::hasSleepingThreads()
  46:src/main.cpp  **** ){ // wait for userMain and all the threads to finish
  47:src/main.cpp  ****         thread_dispatch();
 207              		.loc 1 47 9 is_stmt 1
 208              		.loc 1 47 24 is_stmt 0
 209 011c 97000000 		call	thread_dispatch@plt
 209      E7800000 
 210              	.LVL14:
 211              	.L7:
  45:src/main.cpp  **** ){ // wait for userMain and all the threads to finish
 212              		.loc 1 45 5 is_stmt 1
  45:src/main.cpp  **** ){ // wait for userMain and all the threads to finish
 213              		.loc 1 45 39
  45:src/main.cpp  **** ){ // wait for userMain and all the threads to finish
 214              		.loc 1 45 36 is_stmt 0
 215 0124 97000000 		call	_ZN7_thread14schedulerEmptyEv@plt
 215      E7800000 
 216              	.LVL15:
  45:src/main.cpp  **** ){ // wait for userMain and all the threads to finish
 217              		.loc 1 45 39
 218 012c E30805FE 		beqz	a0,.L4
  45:src/main.cpp  **** ){ // wait for userMain and all the threads to finish
 219              		.loc 1 45 42 discriminator 3
 220 0130 97070000 		lbu	a5,.LANCHOR0
 220      83C70700 
  45:src/main.cpp  **** ){ // wait for userMain and all the threads to finish
 221              		.loc 1 45 39 discriminator 3
 222 0138 E38207FE 		beqz	a5,.L4
  48:src/main.cpp  ****     }
  49:src/main.cpp  **** 
  50:src/main.cpp  ****     /// exit user mode
  51:src/main.cpp  ****     Riscv::changeMode(Riscv::Mode::SUPERVISOR);
 223              		.loc 1 51 5 is_stmt 1
 224              	.LVL16:
 287:src/../inc/riscv.hpp ****     Riscv::w_a1(mode); // 0 is user mode
 225              		.loc 2 287 5
 226              	.LBB39:
 227              	.LBB40:
 228              	.LBB41:
 228:src/../inc/riscv.hpp **** }
 229              		.loc 2 228 5
 228:src/../inc/riscv.hpp **** }
 230              		.loc 2 228 55 is_stmt 0
 231 013c 93079009 		li	a5,153
 232              	#APP
 233              	# 228 "src/../inc/riscv.hpp" 1
 234              		mv a0, a5
 235              	# 0 "" 2
 236              	.LVL17:
 237              	#NO_APP
 238              	.LBE41:
 239              	.LBE40:
 240              	.LBE39:
 288:src/../inc/riscv.hpp ****     Riscv::ecall();
 241              		.loc 2 288 5 is_stmt 1
 242              	.LBB46:
 243              	.LBB42:
GAS LISTING /tmp/ccH3sGQr.s 			page 12


 244              	.LBB43:
 238:src/../inc/riscv.hpp **** }
 245              		.loc 2 238 5
 238:src/../inc/riscv.hpp **** }
 246              		.loc 2 238 55 is_stmt 0
 247 0144 93071000 		li	a5,1
 248              	#APP
 249              	# 238 "src/../inc/riscv.hpp" 1
 250              		mv a1, a5
 251              	# 0 "" 2
 252              	.LVL18:
 253              	#NO_APP
 254              	.LBE43:
 255              	.LBE42:
 256              	.LBE46:
 257              		.loc 2 289 5 is_stmt 1
 258              	.LBB47:
 259              	.LBB44:
 260              	.LBB45:
 218:src/../inc/riscv.hpp **** }
 261              		.loc 2 218 5
 218:src/../inc/riscv.hpp **** }
 262              		.loc 2 218 31 is_stmt 0
 263              	#APP
 264              	# 218 "src/../inc/riscv.hpp" 1
 265              		ecall
 266              	# 0 "" 2
 267              	.LVL19:
 268              	#NO_APP
 269              	.LBE45:
 270              	.LBE44:
 271              	.LBE47:
  52:src/main.cpp  **** 
  53:src/main.cpp  ****     printStringS("FREEING-MAIN\n");
 272              		.loc 1 53 5 is_stmt 1
 273              		.loc 1 53 17 is_stmt 0
 274 0150 17050000 		lla	a0,.LC2
 274      13050500 
 275 0158 97000000 		call	_Z12printStringSPKc@plt
 275      E7800000 
 276              	.LVL20:
  54:src/main.cpp  **** 
  55:src/main.cpp  ****     delete t;
 277              		.loc 1 55 5 is_stmt 1
 278              		.loc 1 55 12 is_stmt 0
 279 0160 033584FD 		ld	a0,-40(s0)
 280              		.loc 1 55 13
 281 0164 63080500 		beqz	a0,.L6
 282              		.loc 1 55 12 discriminator 1
 283 0168 83370500 		ld	a5,0(a0)
 284 016c 83B78700 		ld	a5,8(a5)
 285 0170 E7800700 		jalr	a5
 286              	.LVL21:
 287              	.L6:
  56:src/main.cpp  ****     delete usr;
 288              		.loc 1 56 5 is_stmt 1
 289              		.loc 1 56 12 is_stmt 0
GAS LISTING /tmp/ccH3sGQr.s 			page 13


 290 0174 033504FD 		ld	a0,-48(s0)
 291              		.loc 1 56 15
 292 0178 63080500 		beqz	a0,.L8
 293              		.loc 1 56 12 discriminator 1
 294 017c 83370500 		ld	a5,0(a0)
 295 0180 83B78700 		ld	a5,8(a5)
 296 0184 E7800700 		jalr	a5
 297              	.LVL22:
 298              	.L8:
  57:src/main.cpp  ****     delete putc_buffer;
 299              		.loc 1 57 5 is_stmt 1
 300              		.loc 1 57 23 is_stmt 0
 301 0188 630E0900 		beqz	s2,.L9
 302              		.loc 1 57 12 discriminator 1
 303 018c 13050900 		mv	a0,s2
 304 0190 97000000 		call	_ZN13ConsoleBufferD1Ev@plt
 304      E7800000 
 305              	.LVL23:
 306 0198 13050900 		mv	a0,s2
 307 019c 97000000 		call	_ZdlPv@plt
 307      E7800000 
 308              	.LVL24:
 309              	.L9:
  58:src/main.cpp  ****     delete getc_buffer;
 310              		.loc 1 58 5 is_stmt 1
 311              		.loc 1 58 23 is_stmt 0
 312 01a4 638E0400 		beqz	s1,.L10
 313              		.loc 1 58 12 discriminator 1
 314 01a8 13850400 		mv	a0,s1
 315 01ac 97000000 		call	_ZN13ConsoleBufferD1Ev@plt
 315      E7800000 
 316              	.LVL25:
 317 01b4 13850400 		mv	a0,s1
 318 01b8 97000000 		call	_ZdlPv@plt
 318      E7800000 
 319              	.LVL26:
 320              	.L10:
  59:src/main.cpp  ****     delete putcThread;
 321              		.loc 1 59 5 is_stmt 1
 322              		.loc 1 59 12 is_stmt 0
 323 01c0 033584FC 		ld	a0,-56(s0)
 324              		.loc 1 59 22
 325 01c4 63080500 		beqz	a0,.L11
 326              		.loc 1 59 12 discriminator 1
 327 01c8 83370500 		ld	a5,0(a0)
 328 01cc 83B78700 		ld	a5,8(a5)
 329 01d0 E7800700 		jalr	a5
 330              	.LVL27:
 331              	.L11:
  60:src/main.cpp  **** 
  61:src/main.cpp  ****     printStringS(MemoryAllocator::instance().deallocatedAllMemory()?"\nDeallocated: YES.\n":"\nNot 
 332              		.loc 1 61 5 is_stmt 1
 333              		.loc 1 61 44 is_stmt 0
 334 01d4 97000000 		call	_ZN15MemoryAllocator8instanceEv@plt
 334      E7800000 
 335              	.LVL28:
 336              		.loc 1 61 66
GAS LISTING /tmp/ccH3sGQr.s 			page 14


 337 01dc 97000000 		call	_ZNK15MemoryAllocator20deallocatedAllMemoryEv@plt
 337      E7800000 
 338              	.LVL29:
 339              		.loc 1 61 17
 340 01e4 63000504 		beqz	a0,.L15
 341 01e8 17050000 		lla	a0,.LC1
 341      13050500 
 342              	.L12:
 343              		.loc 1 61 17 discriminator 6
 344 01f0 97000000 		call	_Z12printStringSPKc@plt
 344      E7800000 
 345              	.LVL30:
 346              	.LEHE4:
  62:src/main.cpp  ****     Riscv::halt();
 347              		.loc 1 62 5 is_stmt 1 discriminator 6
 348              	.LBB48:
 349              	.LBB49:
 272:src/../inc/riscv.hpp ****     __asm__ volatile("li t1, 0x100000");
 350              		.loc 2 272 5 discriminator 6
 272:src/../inc/riscv.hpp ****     __asm__ volatile("li t1, 0x100000");
 351              		.loc 2 272 38 is_stmt 0 discriminator 6
 352              	#APP
 353              	# 272 "src/../inc/riscv.hpp" 1
 273:src/../inc/riscv.hpp ****     __asm__ volatile("sw t0, 0(t1) ");
 354              		li t0, 0x5555
 355              	# 0 "" 2
 356              		.loc 2 273 5 is_stmt 1 discriminator 6
 273:src/../inc/riscv.hpp ****     __asm__ volatile("sw t0, 0(t1) ");
 357              		.loc 2 273 40 is_stmt 0 discriminator 6
 358              	# 273 "src/../inc/riscv.hpp" 1
 274:src/../inc/riscv.hpp **** }
 359              		li t1, 0x100000
 360              	# 0 "" 2
 361              		.loc 2 274 5 is_stmt 1 discriminator 6
 274:src/../inc/riscv.hpp **** }
 362              		.loc 2 274 38 is_stmt 0 discriminator 6
 363              	# 274 "src/../inc/riscv.hpp" 1
 364              		sw t0, 0(t1) 
 365              	# 0 "" 2
 366              	#NO_APP
 367              	.LBE49:
 368              	.LBE48:
  63:src/main.cpp  ****     return 0;
 369              		.loc 1 63 5 is_stmt 1 discriminator 6
  64:src/main.cpp  **** }
 370              		.loc 1 64 1 is_stmt 0 discriminator 6
 371 0208 13050000 		li	a0,0
 372 020c 83308103 		ld	ra,56(sp)
 373              		.cfi_remember_state
 374              		.cfi_restore 1
 375 0210 03340103 		ld	s0,48(sp)
 376              		.cfi_restore 8
 377              		.cfi_def_cfa 2, 64
 378 0214 83348102 		ld	s1,40(sp)
 379              		.cfi_restore 9
 380              	.LVL31:
 381 0218 03390102 		ld	s2,32(sp)
GAS LISTING /tmp/ccH3sGQr.s 			page 15


 382              		.cfi_restore 18
 383              	.LVL32:
 384 021c 13010104 		addi	sp,sp,64
 385              		.cfi_def_cfa_offset 0
 386 0220 67800000 		jr	ra
 387              	.LVL33:
 388              	.L15:
 389              		.cfi_restore_state
  61:src/main.cpp  ****     Riscv::halt();
 390              		.loc 1 61 17
 391 0224 17050000 		lla	a0,.LC0
 391      13050500 
 392 022c 6FF05FFC 		j	.L12
 393              	.LVL34:
 394              	.L16:
 395 0230 93040500 		mv	s1,a0
  29:src/main.cpp  ****     _console::putcBuffer = putc_buffer; _console::getcBuffer = getc_buffer;
 396              		.loc 1 29 52
 397 0234 13050900 		mv	a0,s2
 398 0238 97000000 		call	_ZdlPv@plt
 398      E7800000 
 399              	.LVL35:
 400 0240 13850400 		mv	a0,s1
 401              	.LEHB5:
 402 0244 97000000 		call	_Unwind_Resume@plt
 402      E7800000 
 403              	.LVL36:
 404              	.LEHE5:
 405              	.L17:
 406 024c 13090500 		mv	s2,a0
 407              	.LVL37:
  29:src/main.cpp  ****     _console::putcBuffer = putc_buffer; _console::getcBuffer = getc_buffer;
 408              		.loc 1 29 102
 409 0250 13850400 		mv	a0,s1
 410 0254 97000000 		call	_ZdlPv@plt
 410      E7800000 
 411              	.LVL38:
 412 025c 13050900 		mv	a0,s2
 413              	.LEHB6:
 414 0260 97000000 		call	_Unwind_Resume@plt
 414      E7800000 
 415              	.LVL39:
 416              	.LEHE6:
 417              		.cfi_endproc
 418              	.LFE89:
 419              		.globl	__gxx_personality_v0
 420              		.section	.gcc_except_table,"a",@progbits
 421              	.LLSDA89:
 422 0000 FF       		.byte	0xff
 423 0001 FF       		.byte	0xff
 424 0002 03       		.byte	0x3
 425 0003 5B       		.byte	0x5b
 426 0004 00000000 		.4byte	.LEHB0-.LFB89
 427 0008 00000000 		.4byte	.LEHE0-.LEHB0
 428 000c 00000000 		.4byte	0
 429 0010 00       		.byte	0
 430 0011 00000000 		.4byte	.LEHB1-.LFB89
GAS LISTING /tmp/ccH3sGQr.s 			page 16


 431 0015 00000000 		.4byte	.LEHE1-.LEHB1
 432 0019 00000000 		.4byte	.L16-.LFB89
 433 001d 00       		.byte	0
 434 001e 00000000 		.4byte	.LEHB2-.LFB89
 435 0022 00000000 		.4byte	.LEHE2-.LEHB2
 436 0026 00000000 		.4byte	0
 437 002a 00       		.byte	0
 438 002b 00000000 		.4byte	.LEHB3-.LFB89
 439 002f 00000000 		.4byte	.LEHE3-.LEHB3
 440 0033 00000000 		.4byte	.L17-.LFB89
 441 0037 00       		.byte	0
 442 0038 00000000 		.4byte	.LEHB4-.LFB89
 443 003c 00000000 		.4byte	.LEHE4-.LEHB4
 444 0040 00000000 		.4byte	0
 445 0044 00       		.byte	0
 446 0045 00000000 		.4byte	.LEHB5-.LFB89
 447 0049 00000000 		.4byte	.LEHE5-.LEHB5
 448 004d 00000000 		.4byte	0
 449 0051 00       		.byte	0
 450 0052 00000000 		.4byte	.LEHB6-.LFB89
 451 0056 00000000 		.4byte	.LEHE6-.LEHB6
 452 005a 00000000 		.4byte	0
 453 005e 00       		.byte	0
 454              		.text
 456              		.bss
 457              		.set	.LANCHOR0,. + 0
 460              	_ZL11usrFinished:
 461 0000 00       		.zero	1
 462              		.text
 463              	.Letext0:
 464              		.file 3 "src/../inc/../lib/hw.h"
 465              		.file 4 "src/../inc/syscall_c.hpp"
 466              		.file 5 "src/../inc/_thread.hpp"
 467              		.file 6 "src/../inc/../inc/_sem.hpp"
 468              		.file 7 "src/../inc/../inc/MemoryAllocator.hpp"
 469              		.file 8 "src/../inc/List.hpp"
 470              		.file 9 "src/../inc/../inc/List_sorted.hpp"
 471              		.file 10 "src/../inc/../inc/ConsoleBuffer.hpp"
 472              		.file 11 "src/../inc/syscall_cpp.hpp"
 473              		.file 12 "src/../inc/../inc/printingSupervisor.hpp"
 474              		.file 13 "src/../inc/../inc/sysID.hpp"
 5175              		.align	3
 5178              	DW.ref.__gxx_personality_v0:
 5179 0000 00000000 		.dword	__gxx_personality_v0
 5179      00000000 
 5180              		.ident	"GCC: (Ubuntu 9.3.0-17ubuntu1~20.04) 9.3.0"
 5181              		.section	.note.GNU-stack,"",@progbits
GAS LISTING /tmp/ccH3sGQr.s 			page 17

